
test:     file format elf32-littleriscv


Disassembly of section .text:

00010000 <_ftext>:
   10000:	0000e197          	auipc	gp,0xe
   10004:	a7018193          	addi	gp,gp,-1424 # 1da70 <_gp>
   10008:	0000d297          	auipc	t0,0xd
   1000c:	2e028293          	addi	t0,t0,736 # 1d2e8 <_PathLocale>
   10010:	0000d317          	auipc	t1,0xd
   10014:	34830313          	addi	t1,t1,840 # 1d358 <_end>
   10018:	0002a023          	sw	zero,0(t0)
   1001c:	00428293          	addi	t0,t0,4
   10020:	fe62ece3          	bltu	t0,t1,10018 <_ftext+0x18>
   10024:	00000517          	auipc	a0,0x0
   10028:	1e050513          	addi	a0,a0,480 # 10204 <__libc_fini_array>
   1002c:	194000ef          	jal	101c0 <atexit>
   10030:	234000ef          	jal	10264 <__libc_init_array>
   10034:	00012503          	lw	a0,0(sp)
   10038:	00410593          	addi	a1,sp,4
   1003c:	00000613          	li	a2,0
   10040:	124000ef          	jal	10164 <main>
   10044:	1900006f          	j	101d4 <exit>

00010048 <_fini>:
   10048:	00008067          	ret

0001004c <deregister_tm_clones>:
   1004c:	0001d537          	lui	a0,0x1d
   10050:	0001d7b7          	lui	a5,0x1d
   10054:	26850713          	addi	a4,a0,616 # 1d268 <__TMC_END__>
   10058:	26b78793          	addi	a5,a5,619 # 1d26b <__TMC_END__+0x3>
   1005c:	40e787b3          	sub	a5,a5,a4
   10060:	00600713          	li	a4,6
   10064:	00f77c63          	bleu	a5,a4,1007c <deregister_tm_clones+0x30>
   10068:	00000337          	lui	t1,0x0
   1006c:	00030313          	mv	t1,t1
   10070:	00030663          	beqz	t1,1007c <deregister_tm_clones+0x30>
   10074:	26850513          	addi	a0,a0,616
   10078:	00030067          	jr	t1
   1007c:	00008067          	ret

00010080 <register_tm_clones>:
   10080:	0001d537          	lui	a0,0x1d
   10084:	0001d5b7          	lui	a1,0x1d
   10088:	26850793          	addi	a5,a0,616 # 1d268 <__TMC_END__>
   1008c:	26858593          	addi	a1,a1,616 # 1d268 <__TMC_END__>
   10090:	40f585b3          	sub	a1,a1,a5
   10094:	4025d593          	srai	a1,a1,0x2
   10098:	01f5d793          	srli	a5,a1,0x1f
   1009c:	00b785b3          	add	a1,a5,a1
   100a0:	4015d593          	srai	a1,a1,0x1
   100a4:	00058c63          	beqz	a1,100bc <register_tm_clones+0x3c>
   100a8:	00000337          	lui	t1,0x0
   100ac:	00030313          	mv	t1,t1
   100b0:	00030663          	beqz	t1,100bc <register_tm_clones+0x3c>
   100b4:	26850513          	addi	a0,a0,616
   100b8:	00030067          	jr	t1
   100bc:	00008067          	ret

000100c0 <__do_global_dtors_aux>:
   100c0:	ff010113          	addi	sp,sp,-16
   100c4:	00812423          	sw	s0,8(sp)
   100c8:	89c1c783          	lbu	a5,-1892(gp) # 1d30c <_bss_start>
   100cc:	00112623          	sw	ra,12(sp)
   100d0:	02079663          	bnez	a5,100fc <__do_global_dtors_aux+0x3c>
   100d4:	f79ff0ef          	jal	1004c <deregister_tm_clones>
   100d8:	000007b7          	lui	a5,0x0
   100dc:	00078793          	mv	a5,a5
   100e0:	00078a63          	beqz	a5,100f4 <__do_global_dtors_aux+0x34>
   100e4:	0001b537          	lui	a0,0x1b
   100e8:	67450513          	addi	a0,a0,1652 # 1b674 <__fini_array_end>
   100ec:	ffff0317          	auipc	t1,0xffff0
   100f0:	f14300e7          	jalr	t1,-236 # 0 <_ftext-0x10000>
   100f4:	00100793          	li	a5,1
   100f8:	88f18e23          	sb	a5,-1892(gp) # 1d30c <_bss_start>
   100fc:	00c12083          	lw	ra,12(sp)
   10100:	00812403          	lw	s0,8(sp)
   10104:	01010113          	addi	sp,sp,16
   10108:	00008067          	ret

0001010c <frame_dummy>:
   1010c:	ff010113          	addi	sp,sp,-16
   10110:	000007b7          	lui	a5,0x0
   10114:	00112623          	sw	ra,12(sp)
   10118:	00078793          	mv	a5,a5
   1011c:	00078c63          	beqz	a5,10134 <frame_dummy+0x28>
   10120:	0001b537          	lui	a0,0x1b
   10124:	8a018593          	addi	a1,gp,-1888 # 1d310 <object.3070>
   10128:	67450513          	addi	a0,a0,1652 # 1b674 <__fini_array_end>
   1012c:	ffff0317          	auipc	t1,0xffff0
   10130:	ed4300e7          	jalr	t1,-300 # 0 <_ftext-0x10000>
   10134:	0001d7b7          	lui	a5,0x1d
   10138:	9b078513          	addi	a0,a5,-1616 # 1c9b0 <__JCR_END__>
   1013c:	00052783          	lw	a5,0(a0)
   10140:	00079863          	bnez	a5,10150 <frame_dummy+0x44>
   10144:	00c12083          	lw	ra,12(sp)
   10148:	01010113          	addi	sp,sp,16
   1014c:	f35ff06f          	j	10080 <register_tm_clones>
   10150:	000007b7          	lui	a5,0x0
   10154:	00078793          	mv	a5,a5
   10158:	fe0786e3          	beqz	a5,10144 <frame_dummy+0x38>
   1015c:	000780e7          	jalr	a5
   10160:	fe5ff06f          	j	10144 <frame_dummy+0x38>

00010164 <main>:
   10164:	fe010113          	addi	sp,sp,-32
   10168:	00112e23          	sw	ra,28(sp)
   1016c:	00812c23          	sw	s0,24(sp)
   10170:	02010413          	addi	s0,sp,32
   10174:	fe042623          	sw	zero,-20(s0)
   10178:	fec42783          	lw	a5,-20(s0)
   1017c:	00178793          	addi	a5,a5,1 # 1 <_ftext-0xffff>
   10180:	fef42623          	sw	a5,-20(s0)
   10184:	fec42703          	lw	a4,-20(s0)
   10188:	00070793          	mv	a5,a4
   1018c:	00279793          	slli	a5,a5,0x2
   10190:	00e787b3          	add	a5,a5,a4
   10194:	fef42623          	sw	a5,-20(s0)
   10198:	fec42583          	lw	a1,-20(s0)
   1019c:	0001b7b7          	lui	a5,0x1b
   101a0:	0a078513          	addi	a0,a5,160 # 1b0a0 <__errno+0xc>
   101a4:	1a4000ef          	jal	10348 <printf>
   101a8:	00000793          	li	a5,0
   101ac:	00078513          	mv	a0,a5
   101b0:	01c12083          	lw	ra,28(sp)
   101b4:	01812403          	lw	s0,24(sp)
   101b8:	02010113          	addi	sp,sp,32
   101bc:	00008067          	ret

000101c0 <atexit>:
   101c0:	00050593          	mv	a1,a0
   101c4:	00000693          	li	a3,0
   101c8:	00000613          	li	a2,0
   101cc:	00000513          	li	a0,0
   101d0:	6f50106f          	j	120c4 <__register_exitproc>

000101d4 <exit>:
   101d4:	ff010113          	addi	sp,sp,-16
   101d8:	00000593          	li	a1,0
   101dc:	00812423          	sw	s0,8(sp)
   101e0:	00112623          	sw	ra,12(sp)
   101e4:	00050413          	mv	s0,a0
   101e8:	7e5010ef          	jal	121cc <__call_exitprocs>
   101ec:	8041a503          	lw	a0,-2044(gp) # 1d274 <_global_impure_ptr>
   101f0:	03c52783          	lw	a5,60(a0)
   101f4:	00078463          	beqz	a5,101fc <exit+0x28>
   101f8:	000780e7          	jalr	a5
   101fc:	00040513          	mv	a0,s0
   10200:	7c5080ef          	jal	191c4 <_exit>

00010204 <__libc_fini_array>:
   10204:	ff010113          	addi	sp,sp,-16
   10208:	00812423          	sw	s0,8(sp)
   1020c:	00912223          	sw	s1,4(sp)
   10210:	0001b437          	lui	s0,0x1b
   10214:	0001b4b7          	lui	s1,0x1b
   10218:	67048793          	addi	a5,s1,1648 # 1b670 <__init_array_end>
   1021c:	67440413          	addi	s0,s0,1652 # 1b674 <__fini_array_end>
   10220:	40f40433          	sub	s0,s0,a5
   10224:	40245413          	srai	s0,s0,0x2
   10228:	00241493          	slli	s1,s0,0x2
   1022c:	ffc48493          	addi	s1,s1,-4
   10230:	00112623          	sw	ra,12(sp)
   10234:	00f484b3          	add	s1,s1,a5
   10238:	00040c63          	beqz	s0,10250 <__libc_fini_array+0x4c>
   1023c:	0004a783          	lw	a5,0(s1)
   10240:	fff40413          	addi	s0,s0,-1
   10244:	ffc48493          	addi	s1,s1,-4
   10248:	000780e7          	jalr	a5
   1024c:	fe0418e3          	bnez	s0,1023c <__libc_fini_array+0x38>
   10250:	00c12083          	lw	ra,12(sp)
   10254:	00812403          	lw	s0,8(sp)
   10258:	00412483          	lw	s1,4(sp)
   1025c:	01010113          	addi	sp,sp,16
   10260:	de9ff06f          	j	10048 <_fini>

00010264 <__libc_init_array>:
   10264:	ff010113          	addi	sp,sp,-16
   10268:	00812423          	sw	s0,8(sp)
   1026c:	01212023          	sw	s2,0(sp)
   10270:	0001b437          	lui	s0,0x1b
   10274:	0001b937          	lui	s2,0x1b
   10278:	66c40793          	addi	a5,s0,1644 # 1b66c <_etext>
   1027c:	66c90913          	addi	s2,s2,1644 # 1b66c <_etext>
   10280:	40f90933          	sub	s2,s2,a5
   10284:	00912223          	sw	s1,4(sp)
   10288:	00112623          	sw	ra,12(sp)
   1028c:	40295913          	srai	s2,s2,0x2
   10290:	66c40413          	addi	s0,s0,1644
   10294:	00000493          	li	s1,0
   10298:	00090c63          	beqz	s2,102b0 <__libc_init_array+0x4c>
   1029c:	00042783          	lw	a5,0(s0)
   102a0:	00148493          	addi	s1,s1,1
   102a4:	00440413          	addi	s0,s0,4
   102a8:	000780e7          	jalr	a5
   102ac:	fe9918e3          	bne	s2,s1,1029c <__libc_init_array+0x38>
   102b0:	0001b437          	lui	s0,0x1b
   102b4:	d95ff0ef          	jal	10048 <_fini>
   102b8:	0001b937          	lui	s2,0x1b
   102bc:	66c40793          	addi	a5,s0,1644 # 1b66c <_etext>
   102c0:	67090913          	addi	s2,s2,1648 # 1b670 <__init_array_end>
   102c4:	40f90933          	sub	s2,s2,a5
   102c8:	40295913          	srai	s2,s2,0x2
   102cc:	66c40413          	addi	s0,s0,1644
   102d0:	00000493          	li	s1,0
   102d4:	00090c63          	beqz	s2,102ec <__libc_init_array+0x88>
   102d8:	00042783          	lw	a5,0(s0)
   102dc:	00148493          	addi	s1,s1,1
   102e0:	00440413          	addi	s0,s0,4
   102e4:	000780e7          	jalr	a5
   102e8:	fe9918e3          	bne	s2,s1,102d8 <__libc_init_array+0x74>
   102ec:	00c12083          	lw	ra,12(sp)
   102f0:	00812403          	lw	s0,8(sp)
   102f4:	00412483          	lw	s1,4(sp)
   102f8:	00012903          	lw	s2,0(sp)
   102fc:	01010113          	addi	sp,sp,16
   10300:	00008067          	ret

00010304 <_printf_r>:
   10304:	fc010113          	addi	sp,sp,-64
   10308:	02c12423          	sw	a2,40(sp)
   1030c:	02d12623          	sw	a3,44(sp)
   10310:	02f12a23          	sw	a5,52(sp)
   10314:	02e12823          	sw	a4,48(sp)
   10318:	03012c23          	sw	a6,56(sp)
   1031c:	03112e23          	sw	a7,60(sp)
   10320:	00058613          	mv	a2,a1
   10324:	00852583          	lw	a1,8(a0)
   10328:	02810793          	addi	a5,sp,40
   1032c:	00078693          	mv	a3,a5
   10330:	00112e23          	sw	ra,28(sp)
   10334:	00f12623          	sw	a5,12(sp)
   10338:	060000ef          	jal	10398 <_vfprintf_r>
   1033c:	01c12083          	lw	ra,28(sp)
   10340:	04010113          	addi	sp,sp,64
   10344:	00008067          	ret

00010348 <printf>:
   10348:	8081a303          	lw	t1,-2040(gp) # 1d278 <_impure_ptr>
   1034c:	fc010113          	addi	sp,sp,-64
   10350:	02c12423          	sw	a2,40(sp)
   10354:	02d12623          	sw	a3,44(sp)
   10358:	02f12a23          	sw	a5,52(sp)
   1035c:	02b12223          	sw	a1,36(sp)
   10360:	02e12823          	sw	a4,48(sp)
   10364:	03012c23          	sw	a6,56(sp)
   10368:	03112e23          	sw	a7,60(sp)
   1036c:	00832583          	lw	a1,8(t1)
   10370:	02410793          	addi	a5,sp,36
   10374:	00050613          	mv	a2,a0
   10378:	00078693          	mv	a3,a5
   1037c:	00030513          	mv	a0,t1
   10380:	00112e23          	sw	ra,28(sp)
   10384:	00f12623          	sw	a5,12(sp)
   10388:	010000ef          	jal	10398 <_vfprintf_r>
   1038c:	01c12083          	lw	ra,28(sp)
   10390:	04010113          	addi	sp,sp,64
   10394:	00008067          	ret

00010398 <_vfprintf_r>:
   10398:	ec010113          	addi	sp,sp,-320
   1039c:	12112e23          	sw	ra,316(sp)
   103a0:	13512223          	sw	s5,292(sp)
   103a4:	13612023          	sw	s6,288(sp)
   103a8:	11912a23          	sw	s9,276(sp)
   103ac:	00058a93          	mv	s5,a1
   103b0:	00060c93          	mv	s9,a2
   103b4:	02d12823          	sw	a3,48(sp)
   103b8:	12812c23          	sw	s0,312(sp)
   103bc:	12912a23          	sw	s1,308(sp)
   103c0:	13212823          	sw	s2,304(sp)
   103c4:	13312623          	sw	s3,300(sp)
   103c8:	13412423          	sw	s4,296(sp)
   103cc:	11712e23          	sw	s7,284(sp)
   103d0:	11812c23          	sw	s8,280(sp)
   103d4:	11a12823          	sw	s10,272(sp)
   103d8:	11b12623          	sw	s11,268(sp)
   103dc:	00050b13          	mv	s6,a0
   103e0:	2e0040ef          	jal	146c0 <_localeconv_r>
   103e4:	00052783          	lw	a5,0(a0)
   103e8:	00078513          	mv	a0,a5
   103ec:	04f12a23          	sw	a5,84(sp)
   103f0:	304060ef          	jal	166f4 <strlen>
   103f4:	04a12c23          	sw	a0,88(sp)
   103f8:	000b0663          	beqz	s6,10404 <_vfprintf_r+0x6c>
   103fc:	038b2783          	lw	a5,56(s6)
   10400:	26078463          	beqz	a5,10668 <_vfprintf_r+0x2d0>
   10404:	00ca9703          	lh	a4,12(s5)
   10408:	01071793          	slli	a5,a4,0x10
   1040c:	0107d793          	srli	a5,a5,0x10
   10410:	01279693          	slli	a3,a5,0x12
   10414:	0206c663          	bltz	a3,10440 <_vfprintf_r+0xa8>
   10418:	064aa683          	lw	a3,100(s5)
   1041c:	000027b7          	lui	a5,0x2
   10420:	00f767b3          	or	a5,a4,a5
   10424:	ffffe737          	lui	a4,0xffffe
   10428:	fff70713          	addi	a4,a4,-1 # ffffdfff <_gp+0xfffe058f>
   1042c:	00e6f733          	and	a4,a3,a4
   10430:	00fa9623          	sh	a5,12(s5)
   10434:	01079793          	slli	a5,a5,0x10
   10438:	06eaa223          	sw	a4,100(s5)
   1043c:	0107d793          	srli	a5,a5,0x10
   10440:	0087f713          	andi	a4,a5,8
   10444:	14070c63          	beqz	a4,1059c <_vfprintf_r+0x204>
   10448:	010aa703          	lw	a4,16(s5)
   1044c:	14070863          	beqz	a4,1059c <_vfprintf_r+0x204>
   10450:	01a7f793          	andi	a5,a5,26
   10454:	00a00713          	li	a4,10
   10458:	16e78463          	beq	a5,a4,105c0 <_vfprintf_r+0x228>
   1045c:	0001b7b7          	lui	a5,0x1b
   10460:	0a878793          	addi	a5,a5,168 # 1b0a8 <__errno+0x14>
   10464:	02f12a23          	sw	a5,52(sp)
   10468:	0001b7b7          	lui	a5,0x1b
   1046c:	0c010c13          	addi	s8,sp,192
   10470:	20c78793          	addi	a5,a5,524 # 1b20c <blanks.4198>
   10474:	0001b4b7          	lui	s1,0x1b
   10478:	09812623          	sw	s8,140(sp)
   1047c:	08012a23          	sw	zero,148(sp)
   10480:	08012823          	sw	zero,144(sp)
   10484:	04012223          	sw	zero,68(sp)
   10488:	04012423          	sw	zero,72(sp)
   1048c:	04012623          	sw	zero,76(sp)
   10490:	000c0313          	mv	t1,s8
   10494:	04012823          	sw	zero,80(sp)
   10498:	04012e23          	sw	zero,92(sp)
   1049c:	02012423          	sw	zero,40(sp)
   104a0:	00f12e23          	sw	a5,28(sp)
   104a4:	21c48493          	addi	s1,s1,540 # 1b21c <zeroes.4199>
   104a8:	000cc783          	lbu	a5,0(s9)
   104ac:	54078c63          	beqz	a5,10a04 <_vfprintf_r+0x66c>
   104b0:	02500713          	li	a4,37
   104b4:	000c8413          	mv	s0,s9
   104b8:	00e79663          	bne	a5,a4,104c4 <_vfprintf_r+0x12c>
   104bc:	0540006f          	j	10510 <_vfprintf_r+0x178>
   104c0:	00e78863          	beq	a5,a4,104d0 <_vfprintf_r+0x138>
   104c4:	00140413          	addi	s0,s0,1
   104c8:	00044783          	lbu	a5,0(s0)
   104cc:	fe079ae3          	bnez	a5,104c0 <_vfprintf_r+0x128>
   104d0:	41940933          	sub	s2,s0,s9
   104d4:	02090e63          	beqz	s2,10510 <_vfprintf_r+0x178>
   104d8:	09412703          	lw	a4,148(sp)
   104dc:	09012783          	lw	a5,144(sp)
   104e0:	01932023          	sw	s9,0(t1)
   104e4:	01270733          	add	a4,a4,s2
   104e8:	00178793          	addi	a5,a5,1
   104ec:	01232223          	sw	s2,4(t1)
   104f0:	08e12a23          	sw	a4,148(sp)
   104f4:	08f12823          	sw	a5,144(sp)
   104f8:	00700713          	li	a4,7
   104fc:	00830313          	addi	t1,t1,8
   10500:	0ef74263          	blt	a4,a5,105e4 <_vfprintf_r+0x24c>
   10504:	02812783          	lw	a5,40(sp)
   10508:	012787b3          	add	a5,a5,s2
   1050c:	02f12423          	sw	a5,40(sp)
   10510:	00044783          	lbu	a5,0(s0)
   10514:	0e078663          	beqz	a5,10600 <_vfprintf_r+0x268>
   10518:	fff00993          	li	s3,-1
   1051c:	00140c93          	addi	s9,s0,1
   10520:	060107a3          	sb	zero,111(sp)
   10524:	00000613          	li	a2,0
   10528:	00000593          	li	a1,0
   1052c:	00000e13          	li	t3,0
   10530:	00000d93          	li	s11,0
   10534:	05800713          	li	a4,88
   10538:	00900693          	li	a3,9
   1053c:	02a00893          	li	a7,42
   10540:	00098f93          	mv	t6,s3
   10544:	00100513          	li	a0,1
   10548:	02000f13          	li	t5,32
   1054c:	02b00813          	li	a6,43
   10550:	000cc903          	lbu	s2,0(s9)
   10554:	001c8c93          	addi	s9,s9,1
   10558:	fe090793          	addi	a5,s2,-32
   1055c:	08f768e3          	bltu	a4,a5,10dec <_vfprintf_r+0xa54>
   10560:	03412e83          	lw	t4,52(sp)
   10564:	00279793          	slli	a5,a5,0x2
   10568:	01d787b3          	add	a5,a5,t4
   1056c:	0007a783          	lw	a5,0(a5)
   10570:	00078067          	jr	a5
   10574:	010ded93          	ori	s11,s11,16
   10578:	fd9ff06f          	j	10550 <_vfprintf_r+0x1b8>
   1057c:	03012783          	lw	a5,48(sp)
   10580:	0007ae03          	lw	t3,0(a5)
   10584:	00478793          	addi	a5,a5,4
   10588:	02f12823          	sw	a5,48(sp)
   1058c:	fc0e52e3          	bgez	t3,10550 <_vfprintf_r+0x1b8>
   10590:	41c00e33          	neg	t3,t3
   10594:	004ded93          	ori	s11,s11,4
   10598:	fb9ff06f          	j	10550 <_vfprintf_r+0x1b8>
   1059c:	000a8593          	mv	a1,s5
   105a0:	000b0513          	mv	a0,s6
   105a4:	1cd010ef          	jal	11f70 <__swsetup_r>
   105a8:	00050463          	beqz	a0,105b0 <_vfprintf_r+0x218>
   105ac:	34c0106f          	j	118f8 <_vfprintf_r+0x1560>
   105b0:	00cad783          	lhu	a5,12(s5)
   105b4:	00a00713          	li	a4,10
   105b8:	01a7f793          	andi	a5,a5,26
   105bc:	eae790e3          	bne	a5,a4,1045c <_vfprintf_r+0xc4>
   105c0:	00ea9783          	lh	a5,14(s5)
   105c4:	e807cce3          	bltz	a5,1045c <_vfprintf_r+0xc4>
   105c8:	03012683          	lw	a3,48(sp)
   105cc:	000c8613          	mv	a2,s9
   105d0:	000a8593          	mv	a1,s5
   105d4:	000b0513          	mv	a0,s6
   105d8:	0d9010ef          	jal	11eb0 <__sbprintf>
   105dc:	02a12423          	sw	a0,40(sp)
   105e0:	0480006f          	j	10628 <_vfprintf_r+0x290>
   105e4:	08c10613          	addi	a2,sp,140
   105e8:	000a8593          	mv	a1,s5
   105ec:	000b0513          	mv	a0,s6
   105f0:	28c060ef          	jal	1687c <__sprint_r>
   105f4:	02051263          	bnez	a0,10618 <_vfprintf_r+0x280>
   105f8:	000c0313          	mv	t1,s8
   105fc:	f09ff06f          	j	10504 <_vfprintf_r+0x16c>
   10600:	09412783          	lw	a5,148(sp)
   10604:	00078a63          	beqz	a5,10618 <_vfprintf_r+0x280>
   10608:	08c10613          	addi	a2,sp,140
   1060c:	000a8593          	mv	a1,s5
   10610:	000b0513          	mv	a0,s6
   10614:	268060ef          	jal	1687c <__sprint_r>
   10618:	00cad783          	lhu	a5,12(s5)
   1061c:	0407f793          	andi	a5,a5,64
   10620:	00078463          	beqz	a5,10628 <_vfprintf_r+0x290>
   10624:	2d40106f          	j	118f8 <_vfprintf_r+0x1560>
   10628:	13c12083          	lw	ra,316(sp)
   1062c:	02812503          	lw	a0,40(sp)
   10630:	13812403          	lw	s0,312(sp)
   10634:	13412483          	lw	s1,308(sp)
   10638:	13012903          	lw	s2,304(sp)
   1063c:	12c12983          	lw	s3,300(sp)
   10640:	12812a03          	lw	s4,296(sp)
   10644:	12412a83          	lw	s5,292(sp)
   10648:	12012b03          	lw	s6,288(sp)
   1064c:	11c12b83          	lw	s7,284(sp)
   10650:	11812c03          	lw	s8,280(sp)
   10654:	11412c83          	lw	s9,276(sp)
   10658:	11012d03          	lw	s10,272(sp)
   1065c:	10c12d83          	lw	s11,268(sp)
   10660:	14010113          	addi	sp,sp,320
   10664:	00008067          	ret
   10668:	000b0513          	mv	a0,s6
   1066c:	211030ef          	jal	1407c <__sinit>
   10670:	d95ff06f          	j	10404 <_vfprintf_r+0x6c>
   10674:	00050613          	mv	a2,a0
   10678:	00080593          	mv	a1,a6
   1067c:	ed5ff06f          	j	10550 <_vfprintf_r+0x1b8>
   10680:	03012783          	lw	a5,48(sp)
   10684:	03c12623          	sw	t3,44(sp)
   10688:	060107a3          	sb	zero,111(sp)
   1068c:	0007a403          	lw	s0,0(a5)
   10690:	00478d13          	addi	s10,a5,4
   10694:	00041463          	bnez	s0,1069c <_vfprintf_r+0x304>
   10698:	3580106f          	j	119f0 <_vfprintf_r+0x1658>
   1069c:	fff00793          	li	a5,-1
   106a0:	02612023          	sw	t1,32(sp)
   106a4:	00f99463          	bne	s3,a5,106ac <_vfprintf_r+0x314>
   106a8:	3140106f          	j	119bc <_vfprintf_r+0x1624>
   106ac:	00098613          	mv	a2,s3
   106b0:	00000593          	li	a1,0
   106b4:	00040513          	mv	a0,s0
   106b8:	0fd040ef          	jal	14fb4 <memchr>
   106bc:	02012303          	lw	t1,32(sp)
   106c0:	00098a13          	mv	s4,s3
   106c4:	00098b93          	mv	s7,s3
   106c8:	00050a63          	beqz	a0,106dc <_vfprintf_r+0x344>
   106cc:	40850bb3          	sub	s7,a0,s0
   106d0:	000b8a13          	mv	s4,s7
   106d4:	000bd463          	bgez	s7,106dc <_vfprintf_r+0x344>
   106d8:	3000106f          	j	119d8 <_vfprintf_r+0x1640>
   106dc:	06f14603          	lbu	a2,111(sp)
   106e0:	03a12823          	sw	s10,48(sp)
   106e4:	03b12023          	sw	s11,32(sp)
   106e8:	04012023          	sw	zero,64(sp)
   106ec:	00000993          	li	s3,0
   106f0:	40061e63          	bnez	a2,10b0c <_vfprintf_r+0x774>
   106f4:	02012783          	lw	a5,32(sp)
   106f8:	0027f793          	andi	a5,a5,2
   106fc:	02f12c23          	sw	a5,56(sp)
   10700:	00078463          	beqz	a5,10708 <_vfprintf_r+0x370>
   10704:	002a0a13          	addi	s4,s4,2
   10708:	02012783          	lw	a5,32(sp)
   1070c:	0847f793          	andi	a5,a5,132
   10710:	02f12e23          	sw	a5,60(sp)
   10714:	6e079c63          	bnez	a5,10e0c <_vfprintf_r+0xa74>
   10718:	02c12783          	lw	a5,44(sp)
   1071c:	41478d33          	sub	s10,a5,s4
   10720:	6fa05663          	blez	s10,10e0c <_vfprintf_r+0xa74>
   10724:	01000813          	li	a6,16
   10728:	09412783          	lw	a5,148(sp)
   1072c:	09012703          	lw	a4,144(sp)
   10730:	07a85463          	ble	s10,a6,10798 <_vfprintf_r+0x400>
   10734:	00700d93          	li	s11,7
   10738:	00c0006f          	j	10744 <_vfprintf_r+0x3ac>
   1073c:	ff0d0d13          	addi	s10,s10,-16
   10740:	05a85c63          	ble	s10,a6,10798 <_vfprintf_r+0x400>
   10744:	01c12683          	lw	a3,28(sp)
   10748:	01078793          	addi	a5,a5,16
   1074c:	00170713          	addi	a4,a4,1
   10750:	00d32023          	sw	a3,0(t1)
   10754:	01032223          	sw	a6,4(t1)
   10758:	08f12a23          	sw	a5,148(sp)
   1075c:	08e12823          	sw	a4,144(sp)
   10760:	00830313          	addi	t1,t1,8
   10764:	fceddce3          	ble	a4,s11,1073c <_vfprintf_r+0x3a4>
   10768:	08c10613          	addi	a2,sp,140
   1076c:	000a8593          	mv	a1,s5
   10770:	000b0513          	mv	a0,s6
   10774:	03012223          	sw	a6,36(sp)
   10778:	104060ef          	jal	1687c <__sprint_r>
   1077c:	e8051ee3          	bnez	a0,10618 <_vfprintf_r+0x280>
   10780:	02412803          	lw	a6,36(sp)
   10784:	ff0d0d13          	addi	s10,s10,-16
   10788:	09412783          	lw	a5,148(sp)
   1078c:	09012703          	lw	a4,144(sp)
   10790:	000c0313          	mv	t1,s8
   10794:	fba848e3          	blt	a6,s10,10744 <_vfprintf_r+0x3ac>
   10798:	01c12683          	lw	a3,28(sp)
   1079c:	00fd07b3          	add	a5,s10,a5
   107a0:	00170713          	addi	a4,a4,1
   107a4:	00d32023          	sw	a3,0(t1)
   107a8:	01a32223          	sw	s10,4(t1)
   107ac:	08f12a23          	sw	a5,148(sp)
   107b0:	08e12823          	sw	a4,144(sp)
   107b4:	00700693          	li	a3,7
   107b8:	40e6cae3          	blt	a3,a4,113cc <_vfprintf_r+0x1034>
   107bc:	06f14603          	lbu	a2,111(sp)
   107c0:	00830313          	addi	t1,t1,8
   107c4:	02060a63          	beqz	a2,107f8 <_vfprintf_r+0x460>
   107c8:	09012703          	lw	a4,144(sp)
   107cc:	06f10693          	addi	a3,sp,111
   107d0:	00d32023          	sw	a3,0(t1)
   107d4:	00178793          	addi	a5,a5,1
   107d8:	00100693          	li	a3,1
   107dc:	00170713          	addi	a4,a4,1
   107e0:	00d32223          	sw	a3,4(t1)
   107e4:	08f12a23          	sw	a5,148(sp)
   107e8:	08e12823          	sw	a4,144(sp)
   107ec:	00700693          	li	a3,7
   107f0:	00830313          	addi	t1,t1,8
   107f4:	1ce6cae3          	blt	a3,a4,111c8 <_vfprintf_r+0xe30>
   107f8:	03812703          	lw	a4,56(sp)
   107fc:	02070a63          	beqz	a4,10830 <_vfprintf_r+0x498>
   10800:	09012703          	lw	a4,144(sp)
   10804:	07010693          	addi	a3,sp,112
   10808:	00d32023          	sw	a3,0(t1)
   1080c:	00278793          	addi	a5,a5,2
   10810:	00200693          	li	a3,2
   10814:	00170713          	addi	a4,a4,1
   10818:	00d32223          	sw	a3,4(t1)
   1081c:	08f12a23          	sw	a5,148(sp)
   10820:	08e12823          	sw	a4,144(sp)
   10824:	00700693          	li	a3,7
   10828:	00830313          	addi	t1,t1,8
   1082c:	1ae6cee3          	blt	a3,a4,111e8 <_vfprintf_r+0xe50>
   10830:	03c12683          	lw	a3,60(sp)
   10834:	08000713          	li	a4,128
   10838:	76e68463          	beq	a3,a4,10fa0 <_vfprintf_r+0xc08>
   1083c:	417989b3          	sub	s3,s3,s7
   10840:	0b305463          	blez	s3,108e8 <_vfprintf_r+0x550>
   10844:	01000d93          	li	s11,16
   10848:	09012703          	lw	a4,144(sp)
   1084c:	053dde63          	ble	s3,s11,108a8 <_vfprintf_r+0x510>
   10850:	00700d13          	li	s10,7
   10854:	00c0006f          	j	10860 <_vfprintf_r+0x4c8>
   10858:	ff098993          	addi	s3,s3,-16
   1085c:	053dd663          	ble	s3,s11,108a8 <_vfprintf_r+0x510>
   10860:	01078793          	addi	a5,a5,16
   10864:	00170713          	addi	a4,a4,1
   10868:	00932023          	sw	s1,0(t1)
   1086c:	01b32223          	sw	s11,4(t1)
   10870:	08f12a23          	sw	a5,148(sp)
   10874:	08e12823          	sw	a4,144(sp)
   10878:	00830313          	addi	t1,t1,8
   1087c:	fced5ee3          	ble	a4,s10,10858 <_vfprintf_r+0x4c0>
   10880:	08c10613          	addi	a2,sp,140
   10884:	000a8593          	mv	a1,s5
   10888:	000b0513          	mv	a0,s6
   1088c:	7f1050ef          	jal	1687c <__sprint_r>
   10890:	d80514e3          	bnez	a0,10618 <_vfprintf_r+0x280>
   10894:	ff098993          	addi	s3,s3,-16
   10898:	09412783          	lw	a5,148(sp)
   1089c:	09012703          	lw	a4,144(sp)
   108a0:	000c0313          	mv	t1,s8
   108a4:	fb3dcee3          	blt	s11,s3,10860 <_vfprintf_r+0x4c8>
   108a8:	013787b3          	add	a5,a5,s3
   108ac:	00170713          	addi	a4,a4,1
   108b0:	00932023          	sw	s1,0(t1)
   108b4:	01332223          	sw	s3,4(t1)
   108b8:	08f12a23          	sw	a5,148(sp)
   108bc:	08e12823          	sw	a4,144(sp)
   108c0:	00700693          	li	a3,7
   108c4:	00830313          	addi	t1,t1,8
   108c8:	02e6d063          	ble	a4,a3,108e8 <_vfprintf_r+0x550>
   108cc:	08c10613          	addi	a2,sp,140
   108d0:	000a8593          	mv	a1,s5
   108d4:	000b0513          	mv	a0,s6
   108d8:	7a5050ef          	jal	1687c <__sprint_r>
   108dc:	d2051ee3          	bnez	a0,10618 <_vfprintf_r+0x280>
   108e0:	09412783          	lw	a5,148(sp)
   108e4:	000c0313          	mv	t1,s8
   108e8:	02012703          	lw	a4,32(sp)
   108ec:	10077713          	andi	a4,a4,256
   108f0:	62071663          	bnez	a4,10f1c <_vfprintf_r+0xb84>
   108f4:	09012703          	lw	a4,144(sp)
   108f8:	017787b3          	add	a5,a5,s7
   108fc:	00832023          	sw	s0,0(t1)
   10900:	00170713          	addi	a4,a4,1
   10904:	01732223          	sw	s7,4(t1)
   10908:	08f12a23          	sw	a5,148(sp)
   1090c:	08e12823          	sw	a4,144(sp)
   10910:	00700693          	li	a3,7
   10914:	5ee6c463          	blt	a3,a4,10efc <_vfprintf_r+0xb64>
   10918:	00830313          	addi	t1,t1,8
   1091c:	02012703          	lw	a4,32(sp)
   10920:	00477993          	andi	s3,a4,4
   10924:	0a098a63          	beqz	s3,109d8 <_vfprintf_r+0x640>
   10928:	02c12703          	lw	a4,44(sp)
   1092c:	41470433          	sub	s0,a4,s4
   10930:	0a805463          	blez	s0,109d8 <_vfprintf_r+0x640>
   10934:	01000913          	li	s2,16
   10938:	09012703          	lw	a4,144(sp)
   1093c:	06895063          	ble	s0,s2,1099c <_vfprintf_r+0x604>
   10940:	00700993          	li	s3,7
   10944:	00c0006f          	j	10950 <_vfprintf_r+0x5b8>
   10948:	ff040413          	addi	s0,s0,-16
   1094c:	04895863          	ble	s0,s2,1099c <_vfprintf_r+0x604>
   10950:	01c12683          	lw	a3,28(sp)
   10954:	01078793          	addi	a5,a5,16
   10958:	00170713          	addi	a4,a4,1
   1095c:	00d32023          	sw	a3,0(t1)
   10960:	01232223          	sw	s2,4(t1)
   10964:	08f12a23          	sw	a5,148(sp)
   10968:	08e12823          	sw	a4,144(sp)
   1096c:	00830313          	addi	t1,t1,8
   10970:	fce9dce3          	ble	a4,s3,10948 <_vfprintf_r+0x5b0>
   10974:	08c10613          	addi	a2,sp,140
   10978:	000a8593          	mv	a1,s5
   1097c:	000b0513          	mv	a0,s6
   10980:	6fd050ef          	jal	1687c <__sprint_r>
   10984:	c8051ae3          	bnez	a0,10618 <_vfprintf_r+0x280>
   10988:	ff040413          	addi	s0,s0,-16
   1098c:	09412783          	lw	a5,148(sp)
   10990:	09012703          	lw	a4,144(sp)
   10994:	000c0313          	mv	t1,s8
   10998:	fa894ce3          	blt	s2,s0,10950 <_vfprintf_r+0x5b8>
   1099c:	01c12683          	lw	a3,28(sp)
   109a0:	008787b3          	add	a5,a5,s0
   109a4:	00170713          	addi	a4,a4,1
   109a8:	00d32023          	sw	a3,0(t1)
   109ac:	00832223          	sw	s0,4(t1)
   109b0:	08f12a23          	sw	a5,148(sp)
   109b4:	08e12823          	sw	a4,144(sp)
   109b8:	00700693          	li	a3,7
   109bc:	00e6de63          	ble	a4,a3,109d8 <_vfprintf_r+0x640>
   109c0:	08c10613          	addi	a2,sp,140
   109c4:	000a8593          	mv	a1,s5
   109c8:	000b0513          	mv	a0,s6
   109cc:	6b1050ef          	jal	1687c <__sprint_r>
   109d0:	c40514e3          	bnez	a0,10618 <_vfprintf_r+0x280>
   109d4:	09412783          	lw	a5,148(sp)
   109d8:	02c12703          	lw	a4,44(sp)
   109dc:	01475463          	ble	s4,a4,109e4 <_vfprintf_r+0x64c>
   109e0:	000a0713          	mv	a4,s4
   109e4:	02812683          	lw	a3,40(sp)
   109e8:	00e68733          	add	a4,a3,a4
   109ec:	02e12423          	sw	a4,40(sp)
   109f0:	7a079063          	bnez	a5,11190 <_vfprintf_r+0xdf8>
   109f4:	000cc783          	lbu	a5,0(s9)
   109f8:	08012823          	sw	zero,144(sp)
   109fc:	000c0313          	mv	t1,s8
   10a00:	aa0798e3          	bnez	a5,104b0 <_vfprintf_r+0x118>
   10a04:	000c8413          	mv	s0,s9
   10a08:	b09ff06f          	j	10510 <_vfprintf_r+0x178>
   10a0c:	b40592e3          	bnez	a1,10550 <_vfprintf_r+0x1b8>
   10a10:	00050613          	mv	a2,a0
   10a14:	000f0593          	mv	a1,t5
   10a18:	b39ff06f          	j	10550 <_vfprintf_r+0x1b8>
   10a1c:	001ded93          	ori	s11,s11,1
   10a20:	b31ff06f          	j	10550 <_vfprintf_r+0x1b8>
   10a24:	000cc903          	lbu	s2,0(s9)
   10a28:	001c8c93          	addi	s9,s9,1
   10a2c:	01191463          	bne	s2,a7,10a34 <_vfprintf_r+0x69c>
   10a30:	3ec0106f          	j	11e1c <_vfprintf_r+0x1a84>
   10a34:	fd090e93          	addi	t4,s2,-48
   10a38:	00000993          	li	s3,0
   10a3c:	b1d6eee3          	bltu	a3,t4,10558 <_vfprintf_r+0x1c0>
   10a40:	001c8c93          	addi	s9,s9,1
   10a44:	00299793          	slli	a5,s3,0x2
   10a48:	fffcc903          	lbu	s2,-1(s9)
   10a4c:	013787b3          	add	a5,a5,s3
   10a50:	00179793          	slli	a5,a5,0x1
   10a54:	01d789b3          	add	s3,a5,t4
   10a58:	fd090e93          	addi	t4,s2,-48
   10a5c:	ffd6f2e3          	bleu	t4,a3,10a40 <_vfprintf_r+0x6a8>
   10a60:	af9ff06f          	j	10558 <_vfprintf_r+0x1c0>
   10a64:	080ded93          	ori	s11,s11,128
   10a68:	ae9ff06f          	j	10550 <_vfprintf_r+0x1b8>
   10a6c:	03012703          	lw	a4,48(sp)
   10a70:	03000793          	li	a5,48
   10a74:	06f10823          	sb	a5,112(sp)
   10a78:	07800793          	li	a5,120
   10a7c:	06f108a3          	sb	a5,113(sp)
   10a80:	00470793          	addi	a5,a4,4
   10a84:	02f12823          	sw	a5,48(sp)
   10a88:	00072b83          	lw	s7,0(a4)
   10a8c:	0001b7b7          	lui	a5,0x1b
   10a90:	63078793          	addi	a5,a5,1584 # 1b630 <__clz_tab+0x128>
   10a94:	04f12823          	sw	a5,80(sp)
   10a98:	03c12623          	sw	t3,44(sp)
   10a9c:	002ded93          	ori	s11,s11,2
   10aa0:	00200793          	li	a5,2
   10aa4:	07800913          	li	s2,120
   10aa8:	060107a3          	sb	zero,111(sp)
   10aac:	00000613          	li	a2,0
   10ab0:	fff00713          	li	a4,-1
   10ab4:	0ce98863          	beq	s3,a4,10b84 <_vfprintf_r+0x7ec>
   10ab8:	f7fdf713          	andi	a4,s11,-129
   10abc:	02e12023          	sw	a4,32(sp)
   10ac0:	0c0b9663          	bnez	s7,10b8c <_vfprintf_r+0x7f4>
   10ac4:	6e099263          	bnez	s3,111a8 <_vfprintf_r+0xe10>
   10ac8:	0e079ce3          	bnez	a5,113c0 <_vfprintf_r+0x1028>
   10acc:	001dfb93          	andi	s7,s11,1
   10ad0:	000c0413          	mv	s0,s8
   10ad4:	000b8863          	beqz	s7,10ae4 <_vfprintf_r+0x74c>
   10ad8:	03000793          	li	a5,48
   10adc:	0af10fa3          	sb	a5,191(sp)
   10ae0:	0bf10413          	addi	s0,sp,191
   10ae4:	00098a13          	mv	s4,s3
   10ae8:	0179d463          	ble	s7,s3,10af0 <_vfprintf_r+0x758>
   10aec:	000b8a13          	mv	s4,s7
   10af0:	04012023          	sw	zero,64(sp)
   10af4:	c00600e3          	beqz	a2,106f4 <_vfprintf_r+0x35c>
   10af8:	0140006f          	j	10b0c <_vfprintf_r+0x774>
   10afc:	02d00793          	li	a5,45
   10b00:	06f107a3          	sb	a5,111(sp)
   10b04:	02d00613          	li	a2,45
   10b08:	00000993          	li	s3,0
   10b0c:	001a0a13          	addi	s4,s4,1
   10b10:	be5ff06f          	j	106f4 <_vfprintf_r+0x35c>
   10b14:	00000e13          	li	t3,0
   10b18:	fd090e93          	addi	t4,s2,-48
   10b1c:	001c8c93          	addi	s9,s9,1
   10b20:	002e1793          	slli	a5,t3,0x2
   10b24:	fffcc903          	lbu	s2,-1(s9)
   10b28:	01c787b3          	add	a5,a5,t3
   10b2c:	00179793          	slli	a5,a5,0x1
   10b30:	00fe8e33          	add	t3,t4,a5
   10b34:	fd090e93          	addi	t4,s2,-48
   10b38:	ffd6f2e3          	bleu	t4,a3,10b1c <_vfprintf_r+0x784>
   10b3c:	a1dff06f          	j	10558 <_vfprintf_r+0x1c0>
   10b40:	03c12623          	sw	t3,44(sp)
   10b44:	00060463          	beqz	a2,10b4c <_vfprintf_r+0x7b4>
   10b48:	30c0106f          	j	11e54 <_vfprintf_r+0x1abc>
   10b4c:	010ded93          	ori	s11,s11,16
   10b50:	010df793          	andi	a5,s11,16
   10b54:	70079463          	bnez	a5,1125c <_vfprintf_r+0xec4>
   10b58:	040df793          	andi	a5,s11,64
   10b5c:	70078063          	beqz	a5,1125c <_vfprintf_r+0xec4>
   10b60:	03012783          	lw	a5,48(sp)
   10b64:	00079b83          	lh	s7,0(a5)
   10b68:	00478793          	addi	a5,a5,4
   10b6c:	02f12823          	sw	a5,48(sp)
   10b70:	3c0bc0e3          	bltz	s7,11730 <_vfprintf_r+0x1398>
   10b74:	fff00713          	li	a4,-1
   10b78:	06f14603          	lbu	a2,111(sp)
   10b7c:	00100793          	li	a5,1
   10b80:	f2e99ce3          	bne	s3,a4,10ab8 <_vfprintf_r+0x720>
   10b84:	620b8463          	beqz	s7,111ac <_vfprintf_r+0xe14>
   10b88:	03b12023          	sw	s11,32(sp)
   10b8c:	00100713          	li	a4,1
   10b90:	7ce78e63          	beq	a5,a4,1136c <_vfprintf_r+0xfd4>
   10b94:	00200713          	li	a4,2
   10b98:	66e79c63          	bne	a5,a4,11210 <_vfprintf_r+0xe78>
   10b9c:	05012703          	lw	a4,80(sp)
   10ba0:	000c0413          	mv	s0,s8
   10ba4:	00fbf793          	andi	a5,s7,15
   10ba8:	00f707b3          	add	a5,a4,a5
   10bac:	0007c783          	lbu	a5,0(a5)
   10bb0:	fff40413          	addi	s0,s0,-1
   10bb4:	004bdb93          	srli	s7,s7,0x4
   10bb8:	00f40023          	sb	a5,0(s0)
   10bbc:	fe0b94e3          	bnez	s7,10ba4 <_vfprintf_r+0x80c>
   10bc0:	408c0bb3          	sub	s7,s8,s0
   10bc4:	f21ff06f          	j	10ae4 <_vfprintf_r+0x74c>
   10bc8:	03c12623          	sw	t3,44(sp)
   10bcc:	00060463          	beqz	a2,10bd4 <_vfprintf_r+0x83c>
   10bd0:	2a40106f          	j	11e74 <_vfprintf_r+0x1adc>
   10bd4:	008df793          	andi	a5,s11,8
   10bd8:	4c078ce3          	beqz	a5,118b0 <_vfprintf_r+0x1518>
   10bdc:	03012783          	lw	a5,48(sp)
   10be0:	00778793          	addi	a5,a5,7
   10be4:	ff87f793          	andi	a5,a5,-8
   10be8:	00878713          	addi	a4,a5,8
   10bec:	02e12823          	sw	a4,48(sp)
   10bf0:	0007a703          	lw	a4,0(a5)
   10bf4:	0047a783          	lw	a5,4(a5)
   10bf8:	04e12423          	sw	a4,72(sp)
   10bfc:	04f12623          	sw	a5,76(sp)
   10c00:	04812b83          	lw	s7,72(sp)
   10c04:	04c12a03          	lw	s4,76(sp)
   10c08:	02612023          	sw	t1,32(sp)
   10c0c:	000b8513          	mv	a0,s7
   10c10:	000a0593          	mv	a1,s4
   10c14:	78c050ef          	jal	163a0 <__fpclassifyd>
   10c18:	00100413          	li	s0,1
   10c1c:	02012303          	lw	t1,32(sp)
   10c20:	328514e3          	bne	a0,s0,11748 <_vfprintf_r+0x13b0>
   10c24:	000b8513          	mv	a0,s7
   10c28:	000a0593          	mv	a1,s4
   10c2c:	00000613          	li	a2,0
   10c30:	00000693          	li	a3,0
   10c34:	380090ef          	jal	19fb4 <__ltdf2>
   10c38:	02012303          	lw	t1,32(sp)
   10c3c:	5e054ae3          	bltz	a0,11a30 <_vfprintf_r+0x1698>
   10c40:	06f14603          	lbu	a2,111(sp)
   10c44:	04700793          	li	a5,71
   10c48:	4f27d8e3          	ble	s2,a5,11938 <_vfprintf_r+0x15a0>
   10c4c:	0001b437          	lui	s0,0x1b
   10c50:	61040413          	addi	s0,s0,1552 # 1b610 <__clz_tab+0x108>
   10c54:	f7fdf793          	andi	a5,s11,-129
   10c58:	00300a13          	li	s4,3
   10c5c:	02f12023          	sw	a5,32(sp)
   10c60:	04012023          	sw	zero,64(sp)
   10c64:	000a0b93          	mv	s7,s4
   10c68:	00000993          	li	s3,0
   10c6c:	a80604e3          	beqz	a2,106f4 <_vfprintf_r+0x35c>
   10c70:	e9dff06f          	j	10b0c <_vfprintf_r+0x774>
   10c74:	008ded93          	ori	s11,s11,8
   10c78:	8d9ff06f          	j	10550 <_vfprintf_r+0x1b8>
   10c7c:	03c12623          	sw	t3,44(sp)
   10c80:	010ded93          	ori	s11,s11,16
   10c84:	010df793          	andi	a5,s11,16
   10c88:	60079a63          	bnez	a5,1129c <_vfprintf_r+0xf04>
   10c8c:	040df793          	andi	a5,s11,64
   10c90:	03012703          	lw	a4,48(sp)
   10c94:	60078663          	beqz	a5,112a0 <_vfprintf_r+0xf08>
   10c98:	00075b83          	lhu	s7,0(a4)
   10c9c:	00470713          	addi	a4,a4,4
   10ca0:	00000793          	li	a5,0
   10ca4:	02e12823          	sw	a4,48(sp)
   10ca8:	e01ff06f          	j	10aa8 <_vfprintf_r+0x710>
   10cac:	03c12623          	sw	t3,44(sp)
   10cb0:	010ded93          	ori	s11,s11,16
   10cb4:	010df793          	andi	a5,s11,16
   10cb8:	5c079663          	bnez	a5,11284 <_vfprintf_r+0xeec>
   10cbc:	040df793          	andi	a5,s11,64
   10cc0:	03012703          	lw	a4,48(sp)
   10cc4:	5c078263          	beqz	a5,11288 <_vfprintf_r+0xef0>
   10cc8:	00075b83          	lhu	s7,0(a4)
   10ccc:	00470713          	addi	a4,a4,4
   10cd0:	00100793          	li	a5,1
   10cd4:	02e12823          	sw	a4,48(sp)
   10cd8:	dd1ff06f          	j	10aa8 <_vfprintf_r+0x710>
   10cdc:	03c12623          	sw	t3,44(sp)
   10ce0:	00060463          	beqz	a2,10ce8 <_vfprintf_r+0x950>
   10ce4:	1b00106f          	j	11e94 <_vfprintf_r+0x1afc>
   10ce8:	0001b7b7          	lui	a5,0x1b
   10cec:	61c78793          	addi	a5,a5,1564 # 1b61c <__clz_tab+0x114>
   10cf0:	04f12823          	sw	a5,80(sp)
   10cf4:	010df793          	andi	a5,s11,16
   10cf8:	56079c63          	bnez	a5,11270 <_vfprintf_r+0xed8>
   10cfc:	040df793          	andi	a5,s11,64
   10d00:	56078863          	beqz	a5,11270 <_vfprintf_r+0xed8>
   10d04:	03012783          	lw	a5,48(sp)
   10d08:	0007db83          	lhu	s7,0(a5)
   10d0c:	00478793          	addi	a5,a5,4
   10d10:	02f12823          	sw	a5,48(sp)
   10d14:	001df713          	andi	a4,s11,1
   10d18:	00200793          	li	a5,2
   10d1c:	d80706e3          	beqz	a4,10aa8 <_vfprintf_r+0x710>
   10d20:	d80b84e3          	beqz	s7,10aa8 <_vfprintf_r+0x710>
   10d24:	03000713          	li	a4,48
   10d28:	06e10823          	sb	a4,112(sp)
   10d2c:	072108a3          	sb	s2,113(sp)
   10d30:	00fdedb3          	or	s11,s11,a5
   10d34:	d75ff06f          	j	10aa8 <_vfprintf_r+0x710>
   10d38:	03012703          	lw	a4,48(sp)
   10d3c:	03c12623          	sw	t3,44(sp)
   10d40:	00100a13          	li	s4,1
   10d44:	00072783          	lw	a5,0(a4)
   10d48:	060107a3          	sb	zero,111(sp)
   10d4c:	08f10c23          	sb	a5,152(sp)
   10d50:	00470793          	addi	a5,a4,4
   10d54:	02f12823          	sw	a5,48(sp)
   10d58:	03b12023          	sw	s11,32(sp)
   10d5c:	00000613          	li	a2,0
   10d60:	000a0b93          	mv	s7,s4
   10d64:	00000993          	li	s3,0
   10d68:	04012023          	sw	zero,64(sp)
   10d6c:	09810413          	addi	s0,sp,152
   10d70:	985ff06f          	j	106f4 <_vfprintf_r+0x35c>
   10d74:	03c12623          	sw	t3,44(sp)
   10d78:	dc060ce3          	beqz	a2,10b50 <_vfprintf_r+0x7b8>
   10d7c:	06b107a3          	sb	a1,111(sp)
   10d80:	dd1ff06f          	j	10b50 <_vfprintf_r+0x7b8>
   10d84:	040ded93          	ori	s11,s11,64
   10d88:	fc8ff06f          	j	10550 <_vfprintf_r+0x1b8>
   10d8c:	03c12623          	sw	t3,44(sp)
   10d90:	00060463          	beqz	a2,10d98 <_vfprintf_r+0xa00>
   10d94:	0f80106f          	j	11e8c <_vfprintf_r+0x1af4>
   10d98:	0001b7b7          	lui	a5,0x1b
   10d9c:	63078793          	addi	a5,a5,1584 # 1b630 <__clz_tab+0x128>
   10da0:	04f12823          	sw	a5,80(sp)
   10da4:	f51ff06f          	j	10cf4 <_vfprintf_r+0x95c>
   10da8:	00060463          	beqz	a2,10db0 <_vfprintf_r+0xa18>
   10dac:	0d80106f          	j	11e84 <_vfprintf_r+0x1aec>
   10db0:	010df793          	andi	a5,s11,16
   10db4:	0e0796e3          	bnez	a5,116a0 <_vfprintf_r+0x1308>
   10db8:	040dfe93          	andi	t4,s11,64
   10dbc:	0e0e82e3          	beqz	t4,116a0 <_vfprintf_r+0x1308>
   10dc0:	03012703          	lw	a4,48(sp)
   10dc4:	00072783          	lw	a5,0(a4)
   10dc8:	00470713          	addi	a4,a4,4
   10dcc:	02e12823          	sw	a4,48(sp)
   10dd0:	02815703          	lhu	a4,40(sp)
   10dd4:	00e79023          	sh	a4,0(a5)
   10dd8:	ed0ff06f          	j	104a8 <_vfprintf_r+0x110>
   10ddc:	03c12623          	sw	t3,44(sp)
   10de0:	ed5ff06f          	j	10cb4 <_vfprintf_r+0x91c>
   10de4:	03c12623          	sw	t3,44(sp)
   10de8:	e9dff06f          	j	10c84 <_vfprintf_r+0x8ec>
   10dec:	03c12623          	sw	t3,44(sp)
   10df0:	00060463          	beqz	a2,10df8 <_vfprintf_r+0xa60>
   10df4:	0880106f          	j	11e7c <_vfprintf_r+0x1ae4>
   10df8:	800904e3          	beqz	s2,10600 <_vfprintf_r+0x268>
   10dfc:	00100a13          	li	s4,1
   10e00:	09210c23          	sb	s2,152(sp)
   10e04:	060107a3          	sb	zero,111(sp)
   10e08:	f51ff06f          	j	10d58 <_vfprintf_r+0x9c0>
   10e0c:	09412783          	lw	a5,148(sp)
   10e10:	9b5ff06f          	j	107c4 <_vfprintf_r+0x42c>
   10e14:	09012703          	lw	a4,144(sp)
   10e18:	0001b637          	lui	a2,0x1b
   10e1c:	64c60613          	addi	a2,a2,1612 # 1b64c <__clz_tab+0x144>
   10e20:	00c32023          	sw	a2,0(t1)
   10e24:	00178793          	addi	a5,a5,1
   10e28:	00100613          	li	a2,1
   10e2c:	00170713          	addi	a4,a4,1
   10e30:	00c32223          	sw	a2,4(t1)
   10e34:	08f12a23          	sw	a5,148(sp)
   10e38:	08e12823          	sw	a4,144(sp)
   10e3c:	00700613          	li	a2,7
   10e40:	00830313          	addi	t1,t1,8
   10e44:	02e65263          	ble	a4,a2,10e68 <_vfprintf_r+0xad0>
   10e48:	08c10613          	addi	a2,sp,140
   10e4c:	000a8593          	mv	a1,s5
   10e50:	000b0513          	mv	a0,s6
   10e54:	229050ef          	jal	1687c <__sprint_r>
   10e58:	fc051063          	bnez	a0,10618 <_vfprintf_r+0x280>
   10e5c:	07412683          	lw	a3,116(sp)
   10e60:	09412783          	lw	a5,148(sp)
   10e64:	000c0313          	mv	t1,s8
   10e68:	00069c63          	bnez	a3,10e80 <_vfprintf_r+0xae8>
   10e6c:	04412703          	lw	a4,68(sp)
   10e70:	00071863          	bnez	a4,10e80 <_vfprintf_r+0xae8>
   10e74:	02012703          	lw	a4,32(sp)
   10e78:	00177713          	andi	a4,a4,1
   10e7c:	aa0700e3          	beqz	a4,1091c <_vfprintf_r+0x584>
   10e80:	05412703          	lw	a4,84(sp)
   10e84:	05812603          	lw	a2,88(sp)
   10e88:	00830313          	addi	t1,t1,8
   10e8c:	fee32c23          	sw	a4,-8(t1)
   10e90:	09012703          	lw	a4,144(sp)
   10e94:	00f607b3          	add	a5,a2,a5
   10e98:	fec32e23          	sw	a2,-4(t1)
   10e9c:	00170713          	addi	a4,a4,1
   10ea0:	08f12a23          	sw	a5,148(sp)
   10ea4:	08e12823          	sw	a4,144(sp)
   10ea8:	00700613          	li	a2,7
   10eac:	02e65463          	ble	a4,a2,10ed4 <_vfprintf_r+0xb3c>
   10eb0:	08c10613          	addi	a2,sp,140
   10eb4:	000a8593          	mv	a1,s5
   10eb8:	000b0513          	mv	a0,s6
   10ebc:	1c1050ef          	jal	1687c <__sprint_r>
   10ec0:	f4051c63          	bnez	a0,10618 <_vfprintf_r+0x280>
   10ec4:	07412683          	lw	a3,116(sp)
   10ec8:	09412783          	lw	a5,148(sp)
   10ecc:	09012703          	lw	a4,144(sp)
   10ed0:	000c0313          	mv	t1,s8
   10ed4:	4006c4e3          	bltz	a3,11adc <_vfprintf_r+0x1744>
   10ed8:	04412683          	lw	a3,68(sp)
   10edc:	00170713          	addi	a4,a4,1
   10ee0:	00832023          	sw	s0,0(t1)
   10ee4:	00f687b3          	add	a5,a3,a5
   10ee8:	00d32223          	sw	a3,4(t1)
   10eec:	08f12a23          	sw	a5,148(sp)
   10ef0:	08e12823          	sw	a4,144(sp)
   10ef4:	00700693          	li	a3,7
   10ef8:	a2e6d0e3          	ble	a4,a3,10918 <_vfprintf_r+0x580>
   10efc:	08c10613          	addi	a2,sp,140
   10f00:	000a8593          	mv	a1,s5
   10f04:	000b0513          	mv	a0,s6
   10f08:	175050ef          	jal	1687c <__sprint_r>
   10f0c:	f0051663          	bnez	a0,10618 <_vfprintf_r+0x280>
   10f10:	09412783          	lw	a5,148(sp)
   10f14:	000c0313          	mv	t1,s8
   10f18:	a05ff06f          	j	1091c <_vfprintf_r+0x584>
   10f1c:	06500713          	li	a4,101
   10f20:	13275e63          	ble	s2,a4,1105c <_vfprintf_r+0xcc4>
   10f24:	04812503          	lw	a0,72(sp)
   10f28:	04c12583          	lw	a1,76(sp)
   10f2c:	00000613          	li	a2,0
   10f30:	00000693          	li	a3,0
   10f34:	02612c23          	sw	t1,56(sp)
   10f38:	02f12223          	sw	a5,36(sp)
   10f3c:	080090ef          	jal	19fbc <__eqdf2>
   10f40:	02412783          	lw	a5,36(sp)
   10f44:	03812303          	lw	t1,56(sp)
   10f48:	36051663          	bnez	a0,112b4 <_vfprintf_r+0xf1c>
   10f4c:	09012703          	lw	a4,144(sp)
   10f50:	0001b6b7          	lui	a3,0x1b
   10f54:	64c68693          	addi	a3,a3,1612 # 1b64c <__clz_tab+0x144>
   10f58:	00178793          	addi	a5,a5,1
   10f5c:	00d32023          	sw	a3,0(t1)
   10f60:	00170713          	addi	a4,a4,1
   10f64:	00100693          	li	a3,1
   10f68:	00d32223          	sw	a3,4(t1)
   10f6c:	08f12a23          	sw	a5,148(sp)
   10f70:	08e12823          	sw	a4,144(sp)
   10f74:	00700793          	li	a5,7
   10f78:	00830313          	addi	t1,t1,8
   10f7c:	14e7cee3          	blt	a5,a4,118d8 <_vfprintf_r+0x1540>
   10f80:	07412783          	lw	a5,116(sp)
   10f84:	04412703          	lw	a4,68(sp)
   10f88:	4ce7c663          	blt	a5,a4,11454 <_vfprintf_r+0x10bc>
   10f8c:	02012783          	lw	a5,32(sp)
   10f90:	0017f793          	andi	a5,a5,1
   10f94:	4c079063          	bnez	a5,11454 <_vfprintf_r+0x10bc>
   10f98:	09412783          	lw	a5,148(sp)
   10f9c:	981ff06f          	j	1091c <_vfprintf_r+0x584>
   10fa0:	02c12703          	lw	a4,44(sp)
   10fa4:	41470d33          	sub	s10,a4,s4
   10fa8:	89a05ae3          	blez	s10,1083c <_vfprintf_r+0x4a4>
   10fac:	01000d93          	li	s11,16
   10fb0:	09012703          	lw	a4,144(sp)
   10fb4:	07add263          	ble	s10,s11,11018 <_vfprintf_r+0xc80>
   10fb8:	00700693          	li	a3,7
   10fbc:	00c0006f          	j	10fc8 <_vfprintf_r+0xc30>
   10fc0:	ff0d0d13          	addi	s10,s10,-16
   10fc4:	05adda63          	ble	s10,s11,11018 <_vfprintf_r+0xc80>
   10fc8:	01078793          	addi	a5,a5,16
   10fcc:	00170713          	addi	a4,a4,1
   10fd0:	00932023          	sw	s1,0(t1)
   10fd4:	01b32223          	sw	s11,4(t1)
   10fd8:	08f12a23          	sw	a5,148(sp)
   10fdc:	08e12823          	sw	a4,144(sp)
   10fe0:	00830313          	addi	t1,t1,8
   10fe4:	fce6dee3          	ble	a4,a3,10fc0 <_vfprintf_r+0xc28>
   10fe8:	08c10613          	addi	a2,sp,140
   10fec:	000a8593          	mv	a1,s5
   10ff0:	000b0513          	mv	a0,s6
   10ff4:	02d12223          	sw	a3,36(sp)
   10ff8:	085050ef          	jal	1687c <__sprint_r>
   10ffc:	e0051e63          	bnez	a0,10618 <_vfprintf_r+0x280>
   11000:	ff0d0d13          	addi	s10,s10,-16
   11004:	09412783          	lw	a5,148(sp)
   11008:	09012703          	lw	a4,144(sp)
   1100c:	000c0313          	mv	t1,s8
   11010:	02412683          	lw	a3,36(sp)
   11014:	fbadcae3          	blt	s11,s10,10fc8 <_vfprintf_r+0xc30>
   11018:	01a787b3          	add	a5,a5,s10
   1101c:	00170713          	addi	a4,a4,1
   11020:	00932023          	sw	s1,0(t1)
   11024:	01a32223          	sw	s10,4(t1)
   11028:	08f12a23          	sw	a5,148(sp)
   1102c:	08e12823          	sw	a4,144(sp)
   11030:	00700693          	li	a3,7
   11034:	00830313          	addi	t1,t1,8
   11038:	80e6d2e3          	ble	a4,a3,1083c <_vfprintf_r+0x4a4>
   1103c:	08c10613          	addi	a2,sp,140
   11040:	000a8593          	mv	a1,s5
   11044:	000b0513          	mv	a0,s6
   11048:	035050ef          	jal	1687c <__sprint_r>
   1104c:	dc051663          	bnez	a0,10618 <_vfprintf_r+0x280>
   11050:	09412783          	lw	a5,148(sp)
   11054:	000c0313          	mv	t1,s8
   11058:	fe4ff06f          	j	1083c <_vfprintf_r+0x4a4>
   1105c:	04412683          	lw	a3,68(sp)
   11060:	00100713          	li	a4,1
   11064:	0cd75a63          	ble	a3,a4,11138 <_vfprintf_r+0xda0>
   11068:	09012903          	lw	s2,144(sp)
   1106c:	00100713          	li	a4,1
   11070:	00178793          	addi	a5,a5,1
   11074:	00190913          	addi	s2,s2,1
   11078:	00e32223          	sw	a4,4(t1)
   1107c:	00832023          	sw	s0,0(t1)
   11080:	08f12a23          	sw	a5,148(sp)
   11084:	09212823          	sw	s2,144(sp)
   11088:	00700713          	li	a4,7
   1108c:	00830313          	addi	t1,t1,8
   11090:	63274663          	blt	a4,s2,116bc <_vfprintf_r+0x1324>
   11094:	05812703          	lw	a4,88(sp)
   11098:	00190913          	addi	s2,s2,1
   1109c:	09212823          	sw	s2,144(sp)
   110a0:	00f709b3          	add	s3,a4,a5
   110a4:	05412783          	lw	a5,84(sp)
   110a8:	00e32223          	sw	a4,4(t1)
   110ac:	09312a23          	sw	s3,148(sp)
   110b0:	00f32023          	sw	a5,0(t1)
   110b4:	00700713          	li	a4,7
   110b8:	00830b93          	addi	s7,t1,8
   110bc:	65274663          	blt	a4,s2,11708 <_vfprintf_r+0x1370>
   110c0:	04812503          	lw	a0,72(sp)
   110c4:	04c12583          	lw	a1,76(sp)
   110c8:	00000613          	li	a2,0
   110cc:	00000693          	li	a3,0
   110d0:	6e9080ef          	jal	19fb8 <__nedf2>
   110d4:	04412783          	lw	a5,68(sp)
   110d8:	30050c63          	beqz	a0,113f0 <_vfprintf_r+0x1058>
   110dc:	fff78713          	addi	a4,a5,-1
   110e0:	00e989b3          	add	s3,s3,a4
   110e4:	00140413          	addi	s0,s0,1
   110e8:	00190913          	addi	s2,s2,1
   110ec:	00eba223          	sw	a4,4(s7)
   110f0:	008ba023          	sw	s0,0(s7)
   110f4:	09312a23          	sw	s3,148(sp)
   110f8:	09212823          	sw	s2,144(sp)
   110fc:	00700713          	li	a4,7
   11100:	07274663          	blt	a4,s2,1116c <_vfprintf_r+0xdd4>
   11104:	008b8b93          	addi	s7,s7,8
   11108:	05c12683          	lw	a3,92(sp)
   1110c:	07c10713          	addi	a4,sp,124
   11110:	00190913          	addi	s2,s2,1
   11114:	013687b3          	add	a5,a3,s3
   11118:	00eba023          	sw	a4,0(s7)
   1111c:	00dba223          	sw	a3,4(s7)
   11120:	08f12a23          	sw	a5,148(sp)
   11124:	09212823          	sw	s2,144(sp)
   11128:	00700713          	li	a4,7
   1112c:	008b8313          	addi	t1,s7,8
   11130:	ff275663          	ble	s2,a4,1091c <_vfprintf_r+0x584>
   11134:	dc9ff06f          	j	10efc <_vfprintf_r+0xb64>
   11138:	02012683          	lw	a3,32(sp)
   1113c:	00e6f6b3          	and	a3,a3,a4
   11140:	f20694e3          	bnez	a3,11068 <_vfprintf_r+0xcd0>
   11144:	09012903          	lw	s2,144(sp)
   11148:	00178993          	addi	s3,a5,1
   1114c:	00e32223          	sw	a4,4(t1)
   11150:	00190913          	addi	s2,s2,1
   11154:	00832023          	sw	s0,0(t1)
   11158:	09312a23          	sw	s3,148(sp)
   1115c:	09212823          	sw	s2,144(sp)
   11160:	00700713          	li	a4,7
   11164:	00830b93          	addi	s7,t1,8
   11168:	fb2750e3          	ble	s2,a4,11108 <_vfprintf_r+0xd70>
   1116c:	08c10613          	addi	a2,sp,140
   11170:	000a8593          	mv	a1,s5
   11174:	000b0513          	mv	a0,s6
   11178:	704050ef          	jal	1687c <__sprint_r>
   1117c:	c8051e63          	bnez	a0,10618 <_vfprintf_r+0x280>
   11180:	09412983          	lw	s3,148(sp)
   11184:	09012903          	lw	s2,144(sp)
   11188:	000c0b93          	mv	s7,s8
   1118c:	f7dff06f          	j	11108 <_vfprintf_r+0xd70>
   11190:	08c10613          	addi	a2,sp,140
   11194:	000a8593          	mv	a1,s5
   11198:	000b0513          	mv	a0,s6
   1119c:	6e0050ef          	jal	1687c <__sprint_r>
   111a0:	84050ae3          	beqz	a0,109f4 <_vfprintf_r+0x65c>
   111a4:	c74ff06f          	j	10618 <_vfprintf_r+0x280>
   111a8:	02012d83          	lw	s11,32(sp)
   111ac:	00100713          	li	a4,1
   111b0:	36e78663          	beq	a5,a4,1151c <_vfprintf_r+0x1184>
   111b4:	00200713          	li	a4,2
   111b8:	04e79863          	bne	a5,a4,11208 <_vfprintf_r+0xe70>
   111bc:	03b12023          	sw	s11,32(sp)
   111c0:	00000b93          	li	s7,0
   111c4:	9d9ff06f          	j	10b9c <_vfprintf_r+0x804>
   111c8:	08c10613          	addi	a2,sp,140
   111cc:	000a8593          	mv	a1,s5
   111d0:	000b0513          	mv	a0,s6
   111d4:	6a8050ef          	jal	1687c <__sprint_r>
   111d8:	c4051063          	bnez	a0,10618 <_vfprintf_r+0x280>
   111dc:	09412783          	lw	a5,148(sp)
   111e0:	000c0313          	mv	t1,s8
   111e4:	e14ff06f          	j	107f8 <_vfprintf_r+0x460>
   111e8:	08c10613          	addi	a2,sp,140
   111ec:	000a8593          	mv	a1,s5
   111f0:	000b0513          	mv	a0,s6
   111f4:	688050ef          	jal	1687c <__sprint_r>
   111f8:	c2051063          	bnez	a0,10618 <_vfprintf_r+0x280>
   111fc:	09412783          	lw	a5,148(sp)
   11200:	000c0313          	mv	t1,s8
   11204:	e2cff06f          	j	10830 <_vfprintf_r+0x498>
   11208:	03b12023          	sw	s11,32(sp)
   1120c:	00000b93          	li	s7,0
   11210:	000c0713          	mv	a4,s8
   11214:	0080006f          	j	1121c <_vfprintf_r+0xe84>
   11218:	00040713          	mv	a4,s0
   1121c:	007bf793          	andi	a5,s7,7
   11220:	03078793          	addi	a5,a5,48
   11224:	fef70fa3          	sb	a5,-1(a4)
   11228:	003bdb93          	srli	s7,s7,0x3
   1122c:	fff70413          	addi	s0,a4,-1
   11230:	fe0b94e3          	bnez	s7,11218 <_vfprintf_r+0xe80>
   11234:	02012683          	lw	a3,32(sp)
   11238:	0016f693          	andi	a3,a3,1
   1123c:	980682e3          	beqz	a3,10bc0 <_vfprintf_r+0x828>
   11240:	03000693          	li	a3,48
   11244:	96d78ee3          	beq	a5,a3,10bc0 <_vfprintf_r+0x828>
   11248:	ffe70713          	addi	a4,a4,-2
   1124c:	fed40fa3          	sb	a3,-1(s0)
   11250:	40ec0bb3          	sub	s7,s8,a4
   11254:	00070413          	mv	s0,a4
   11258:	88dff06f          	j	10ae4 <_vfprintf_r+0x74c>
   1125c:	03012783          	lw	a5,48(sp)
   11260:	0007ab83          	lw	s7,0(a5)
   11264:	00478793          	addi	a5,a5,4
   11268:	02f12823          	sw	a5,48(sp)
   1126c:	905ff06f          	j	10b70 <_vfprintf_r+0x7d8>
   11270:	03012783          	lw	a5,48(sp)
   11274:	0007ab83          	lw	s7,0(a5)
   11278:	00478793          	addi	a5,a5,4
   1127c:	02f12823          	sw	a5,48(sp)
   11280:	a95ff06f          	j	10d14 <_vfprintf_r+0x97c>
   11284:	03012703          	lw	a4,48(sp)
   11288:	00072b83          	lw	s7,0(a4)
   1128c:	00470713          	addi	a4,a4,4
   11290:	00100793          	li	a5,1
   11294:	02e12823          	sw	a4,48(sp)
   11298:	811ff06f          	j	10aa8 <_vfprintf_r+0x710>
   1129c:	03012703          	lw	a4,48(sp)
   112a0:	00072b83          	lw	s7,0(a4)
   112a4:	00470713          	addi	a4,a4,4
   112a8:	00000793          	li	a5,0
   112ac:	02e12823          	sw	a4,48(sp)
   112b0:	ff8ff06f          	j	10aa8 <_vfprintf_r+0x710>
   112b4:	07412683          	lw	a3,116(sp)
   112b8:	b4d05ee3          	blez	a3,10e14 <_vfprintf_r+0xa7c>
   112bc:	04012703          	lw	a4,64(sp)
   112c0:	04412683          	lw	a3,68(sp)
   112c4:	00070913          	mv	s2,a4
   112c8:	00e6d463          	ble	a4,a3,112d0 <_vfprintf_r+0xf38>
   112cc:	00068913          	mv	s2,a3
   112d0:	03205663          	blez	s2,112fc <_vfprintf_r+0xf64>
   112d4:	09012703          	lw	a4,144(sp)
   112d8:	012787b3          	add	a5,a5,s2
   112dc:	00832023          	sw	s0,0(t1)
   112e0:	00170713          	addi	a4,a4,1
   112e4:	01232223          	sw	s2,4(t1)
   112e8:	08f12a23          	sw	a5,148(sp)
   112ec:	08e12823          	sw	a4,144(sp)
   112f0:	00700693          	li	a3,7
   112f4:	00830313          	addi	t1,t1,8
   112f8:	64e6c663          	blt	a3,a4,11944 <_vfprintf_r+0x15ac>
   112fc:	6e094263          	bltz	s2,119e0 <_vfprintf_r+0x1648>
   11300:	04012703          	lw	a4,64(sp)
   11304:	41270933          	sub	s2,a4,s2
   11308:	27205663          	blez	s2,11574 <_vfprintf_r+0x11dc>
   1130c:	01000b93          	li	s7,16
   11310:	09012703          	lw	a4,144(sp)
   11314:	232bd063          	ble	s2,s7,11534 <_vfprintf_r+0x119c>
   11318:	00700d13          	li	s10,7
   1131c:	00c0006f          	j	11328 <_vfprintf_r+0xf90>
   11320:	ff090913          	addi	s2,s2,-16
   11324:	212bd863          	ble	s2,s7,11534 <_vfprintf_r+0x119c>
   11328:	01078793          	addi	a5,a5,16
   1132c:	00170713          	addi	a4,a4,1
   11330:	00932023          	sw	s1,0(t1)
   11334:	01732223          	sw	s7,4(t1)
   11338:	08f12a23          	sw	a5,148(sp)
   1133c:	08e12823          	sw	a4,144(sp)
   11340:	00830313          	addi	t1,t1,8
   11344:	fced5ee3          	ble	a4,s10,11320 <_vfprintf_r+0xf88>
   11348:	08c10613          	addi	a2,sp,140
   1134c:	000a8593          	mv	a1,s5
   11350:	000b0513          	mv	a0,s6
   11354:	528050ef          	jal	1687c <__sprint_r>
   11358:	ac051063          	bnez	a0,10618 <_vfprintf_r+0x280>
   1135c:	09412783          	lw	a5,148(sp)
   11360:	09012703          	lw	a4,144(sp)
   11364:	000c0313          	mv	t1,s8
   11368:	fb9ff06f          	j	11320 <_vfprintf_r+0xf88>
   1136c:	00900793          	li	a5,9
   11370:	000c0413          	mv	s0,s8
   11374:	00a00a13          	li	s4,10
   11378:	00030d13          	mv	s10,t1
   1137c:	00060d93          	mv	s11,a2
   11380:	1977fc63          	bleu	s7,a5,11518 <_vfprintf_r+0x1180>
   11384:	000a0593          	mv	a1,s4
   11388:	000b8513          	mv	a0,s7
   1138c:	04c090ef          	jal	1a3d8 <__umodsi3>
   11390:	03050513          	addi	a0,a0,48
   11394:	fff40413          	addi	s0,s0,-1
   11398:	00a40023          	sb	a0,0(s0)
   1139c:	000a0593          	mv	a1,s4
   113a0:	000b8513          	mv	a0,s7
   113a4:	7ed080ef          	jal	1a390 <__udivsi3>
   113a8:	00050b93          	mv	s7,a0
   113ac:	fc051ce3          	bnez	a0,11384 <_vfprintf_r+0xfec>
   113b0:	000d0313          	mv	t1,s10
   113b4:	000d8613          	mv	a2,s11
   113b8:	408c0bb3          	sub	s7,s8,s0
   113bc:	f28ff06f          	j	10ae4 <_vfprintf_r+0x74c>
   113c0:	00000b93          	li	s7,0
   113c4:	000c0413          	mv	s0,s8
   113c8:	f1cff06f          	j	10ae4 <_vfprintf_r+0x74c>
   113cc:	08c10613          	addi	a2,sp,140
   113d0:	000a8593          	mv	a1,s5
   113d4:	000b0513          	mv	a0,s6
   113d8:	4a4050ef          	jal	1687c <__sprint_r>
   113dc:	a2051e63          	bnez	a0,10618 <_vfprintf_r+0x280>
   113e0:	06f14603          	lbu	a2,111(sp)
   113e4:	09412783          	lw	a5,148(sp)
   113e8:	000c0313          	mv	t1,s8
   113ec:	bd8ff06f          	j	107c4 <_vfprintf_r+0x42c>
   113f0:	fff78413          	addi	s0,a5,-1
   113f4:	d0805ae3          	blez	s0,11108 <_vfprintf_r+0xd70>
   113f8:	01000d13          	li	s10,16
   113fc:	2e8d5463          	ble	s0,s10,116e4 <_vfprintf_r+0x134c>
   11400:	00700d93          	li	s11,7
   11404:	00c0006f          	j	11410 <_vfprintf_r+0x1078>
   11408:	ff040413          	addi	s0,s0,-16
   1140c:	2c8d5c63          	ble	s0,s10,116e4 <_vfprintf_r+0x134c>
   11410:	01098993          	addi	s3,s3,16
   11414:	00190913          	addi	s2,s2,1
   11418:	009ba023          	sw	s1,0(s7)
   1141c:	01aba223          	sw	s10,4(s7)
   11420:	09312a23          	sw	s3,148(sp)
   11424:	09212823          	sw	s2,144(sp)
   11428:	008b8b93          	addi	s7,s7,8
   1142c:	fd2ddee3          	ble	s2,s11,11408 <_vfprintf_r+0x1070>
   11430:	08c10613          	addi	a2,sp,140
   11434:	000a8593          	mv	a1,s5
   11438:	000b0513          	mv	a0,s6
   1143c:	440050ef          	jal	1687c <__sprint_r>
   11440:	9c051c63          	bnez	a0,10618 <_vfprintf_r+0x280>
   11444:	09412983          	lw	s3,148(sp)
   11448:	09012903          	lw	s2,144(sp)
   1144c:	000c0b93          	mv	s7,s8
   11450:	fb9ff06f          	j	11408 <_vfprintf_r+0x1070>
   11454:	05412783          	lw	a5,84(sp)
   11458:	05812683          	lw	a3,88(sp)
   1145c:	09012703          	lw	a4,144(sp)
   11460:	00f32023          	sw	a5,0(t1)
   11464:	09412783          	lw	a5,148(sp)
   11468:	00170713          	addi	a4,a4,1
   1146c:	00d32223          	sw	a3,4(t1)
   11470:	00f687b3          	add	a5,a3,a5
   11474:	08f12a23          	sw	a5,148(sp)
   11478:	08e12823          	sw	a4,144(sp)
   1147c:	00700693          	li	a3,7
   11480:	00830313          	addi	t1,t1,8
   11484:	50e6ca63          	blt	a3,a4,11998 <_vfprintf_r+0x1600>
   11488:	04412703          	lw	a4,68(sp)
   1148c:	fff70413          	addi	s0,a4,-1
   11490:	c8805663          	blez	s0,1091c <_vfprintf_r+0x584>
   11494:	01000913          	li	s2,16
   11498:	09012703          	lw	a4,144(sp)
   1149c:	04895c63          	ble	s0,s2,114f4 <_vfprintf_r+0x115c>
   114a0:	00700b93          	li	s7,7
   114a4:	00c0006f          	j	114b0 <_vfprintf_r+0x1118>
   114a8:	ff040413          	addi	s0,s0,-16
   114ac:	04895463          	ble	s0,s2,114f4 <_vfprintf_r+0x115c>
   114b0:	01078793          	addi	a5,a5,16
   114b4:	00170713          	addi	a4,a4,1
   114b8:	00932023          	sw	s1,0(t1)
   114bc:	01232223          	sw	s2,4(t1)
   114c0:	08f12a23          	sw	a5,148(sp)
   114c4:	08e12823          	sw	a4,144(sp)
   114c8:	00830313          	addi	t1,t1,8
   114cc:	fcebdee3          	ble	a4,s7,114a8 <_vfprintf_r+0x1110>
   114d0:	08c10613          	addi	a2,sp,140
   114d4:	000a8593          	mv	a1,s5
   114d8:	000b0513          	mv	a0,s6
   114dc:	3a0050ef          	jal	1687c <__sprint_r>
   114e0:	92051c63          	bnez	a0,10618 <_vfprintf_r+0x280>
   114e4:	09412783          	lw	a5,148(sp)
   114e8:	09012703          	lw	a4,144(sp)
   114ec:	000c0313          	mv	t1,s8
   114f0:	fb9ff06f          	j	114a8 <_vfprintf_r+0x1110>
   114f4:	00932023          	sw	s1,0(t1)
   114f8:	00832223          	sw	s0,4(t1)
   114fc:	008787b3          	add	a5,a5,s0
   11500:	00170713          	addi	a4,a4,1
   11504:	08f12a23          	sw	a5,148(sp)
   11508:	08e12823          	sw	a4,144(sp)
   1150c:	00700693          	li	a3,7
   11510:	c0e6d463          	ble	a4,a3,10918 <_vfprintf_r+0x580>
   11514:	9e9ff06f          	j	10efc <_vfprintf_r+0xb64>
   11518:	02012d83          	lw	s11,32(sp)
   1151c:	030b8b93          	addi	s7,s7,48
   11520:	0b710fa3          	sb	s7,191(sp)
   11524:	03b12023          	sw	s11,32(sp)
   11528:	00100b93          	li	s7,1
   1152c:	0bf10413          	addi	s0,sp,191
   11530:	db4ff06f          	j	10ae4 <_vfprintf_r+0x74c>
   11534:	012787b3          	add	a5,a5,s2
   11538:	00170713          	addi	a4,a4,1
   1153c:	00932023          	sw	s1,0(t1)
   11540:	01232223          	sw	s2,4(t1)
   11544:	08f12a23          	sw	a5,148(sp)
   11548:	08e12823          	sw	a4,144(sp)
   1154c:	00700693          	li	a3,7
   11550:	00830313          	addi	t1,t1,8
   11554:	02e6d063          	ble	a4,a3,11574 <_vfprintf_r+0x11dc>
   11558:	08c10613          	addi	a2,sp,140
   1155c:	000a8593          	mv	a1,s5
   11560:	000b0513          	mv	a0,s6
   11564:	318050ef          	jal	1687c <__sprint_r>
   11568:	8a051863          	bnez	a0,10618 <_vfprintf_r+0x280>
   1156c:	09412783          	lw	a5,148(sp)
   11570:	000c0313          	mv	t1,s8
   11574:	07412703          	lw	a4,116(sp)
   11578:	04412683          	lw	a3,68(sp)
   1157c:	0cd74663          	blt	a4,a3,11648 <_vfprintf_r+0x12b0>
   11580:	02012683          	lw	a3,32(sp)
   11584:	0016f693          	andi	a3,a3,1
   11588:	0c069063          	bnez	a3,11648 <_vfprintf_r+0x12b0>
   1158c:	04412683          	lw	a3,68(sp)
   11590:	04012603          	lw	a2,64(sp)
   11594:	40e68733          	sub	a4,a3,a4
   11598:	40c68933          	sub	s2,a3,a2
   1159c:	01275463          	ble	s2,a4,115a4 <_vfprintf_r+0x120c>
   115a0:	00070913          	mv	s2,a4
   115a4:	03205a63          	blez	s2,115d8 <_vfprintf_r+0x1240>
   115a8:	09012603          	lw	a2,144(sp)
   115ac:	04012683          	lw	a3,64(sp)
   115b0:	012787b3          	add	a5,a5,s2
   115b4:	00160613          	addi	a2,a2,1
   115b8:	00d406b3          	add	a3,s0,a3
   115bc:	00d32023          	sw	a3,0(t1)
   115c0:	01232223          	sw	s2,4(t1)
   115c4:	08f12a23          	sw	a5,148(sp)
   115c8:	08c12823          	sw	a2,144(sp)
   115cc:	00700693          	li	a3,7
   115d0:	00830313          	addi	t1,t1,8
   115d4:	38c6ca63          	blt	a3,a2,11968 <_vfprintf_r+0x15d0>
   115d8:	40094863          	bltz	s2,119e8 <_vfprintf_r+0x1650>
   115dc:	41270433          	sub	s0,a4,s2
   115e0:	b2805e63          	blez	s0,1091c <_vfprintf_r+0x584>
   115e4:	01000913          	li	s2,16
   115e8:	09012703          	lw	a4,144(sp)
   115ec:	f08954e3          	ble	s0,s2,114f4 <_vfprintf_r+0x115c>
   115f0:	00700b93          	li	s7,7
   115f4:	00c0006f          	j	11600 <_vfprintf_r+0x1268>
   115f8:	ff040413          	addi	s0,s0,-16
   115fc:	ee895ce3          	ble	s0,s2,114f4 <_vfprintf_r+0x115c>
   11600:	01078793          	addi	a5,a5,16
   11604:	00170713          	addi	a4,a4,1
   11608:	00932023          	sw	s1,0(t1)
   1160c:	01232223          	sw	s2,4(t1)
   11610:	08f12a23          	sw	a5,148(sp)
   11614:	08e12823          	sw	a4,144(sp)
   11618:	00830313          	addi	t1,t1,8
   1161c:	fcebdee3          	ble	a4,s7,115f8 <_vfprintf_r+0x1260>
   11620:	08c10613          	addi	a2,sp,140
   11624:	000a8593          	mv	a1,s5
   11628:	000b0513          	mv	a0,s6
   1162c:	250050ef          	jal	1687c <__sprint_r>
   11630:	00050463          	beqz	a0,11638 <_vfprintf_r+0x12a0>
   11634:	fe5fe06f          	j	10618 <_vfprintf_r+0x280>
   11638:	09412783          	lw	a5,148(sp)
   1163c:	09012703          	lw	a4,144(sp)
   11640:	000c0313          	mv	t1,s8
   11644:	fb5ff06f          	j	115f8 <_vfprintf_r+0x1260>
   11648:	05412683          	lw	a3,84(sp)
   1164c:	05812603          	lw	a2,88(sp)
   11650:	00830313          	addi	t1,t1,8
   11654:	fed32c23          	sw	a3,-8(t1)
   11658:	09012683          	lw	a3,144(sp)
   1165c:	00c787b3          	add	a5,a5,a2
   11660:	fec32e23          	sw	a2,-4(t1)
   11664:	00168693          	addi	a3,a3,1
   11668:	08f12a23          	sw	a5,148(sp)
   1166c:	08d12823          	sw	a3,144(sp)
   11670:	00700613          	li	a2,7
   11674:	f0d65ce3          	ble	a3,a2,1158c <_vfprintf_r+0x11f4>
   11678:	08c10613          	addi	a2,sp,140
   1167c:	000a8593          	mv	a1,s5
   11680:	000b0513          	mv	a0,s6
   11684:	1f8050ef          	jal	1687c <__sprint_r>
   11688:	00050463          	beqz	a0,11690 <_vfprintf_r+0x12f8>
   1168c:	f8dfe06f          	j	10618 <_vfprintf_r+0x280>
   11690:	07412703          	lw	a4,116(sp)
   11694:	09412783          	lw	a5,148(sp)
   11698:	000c0313          	mv	t1,s8
   1169c:	ef1ff06f          	j	1158c <_vfprintf_r+0x11f4>
   116a0:	03012703          	lw	a4,48(sp)
   116a4:	00072783          	lw	a5,0(a4)
   116a8:	00470713          	addi	a4,a4,4
   116ac:	02e12823          	sw	a4,48(sp)
   116b0:	02812703          	lw	a4,40(sp)
   116b4:	00e7a023          	sw	a4,0(a5)
   116b8:	df1fe06f          	j	104a8 <_vfprintf_r+0x110>
   116bc:	08c10613          	addi	a2,sp,140
   116c0:	000a8593          	mv	a1,s5
   116c4:	000b0513          	mv	a0,s6
   116c8:	1b4050ef          	jal	1687c <__sprint_r>
   116cc:	00050463          	beqz	a0,116d4 <_vfprintf_r+0x133c>
   116d0:	f49fe06f          	j	10618 <_vfprintf_r+0x280>
   116d4:	09412783          	lw	a5,148(sp)
   116d8:	09012903          	lw	s2,144(sp)
   116dc:	000c0313          	mv	t1,s8
   116e0:	9b5ff06f          	j	11094 <_vfprintf_r+0xcfc>
   116e4:	008989b3          	add	s3,s3,s0
   116e8:	00190913          	addi	s2,s2,1
   116ec:	009ba023          	sw	s1,0(s7)
   116f0:	008ba223          	sw	s0,4(s7)
   116f4:	09312a23          	sw	s3,148(sp)
   116f8:	09212823          	sw	s2,144(sp)
   116fc:	00700713          	li	a4,7
   11700:	a12752e3          	ble	s2,a4,11104 <_vfprintf_r+0xd6c>
   11704:	a69ff06f          	j	1116c <_vfprintf_r+0xdd4>
   11708:	08c10613          	addi	a2,sp,140
   1170c:	000a8593          	mv	a1,s5
   11710:	000b0513          	mv	a0,s6
   11714:	168050ef          	jal	1687c <__sprint_r>
   11718:	00050463          	beqz	a0,11720 <_vfprintf_r+0x1388>
   1171c:	efdfe06f          	j	10618 <_vfprintf_r+0x280>
   11720:	09412983          	lw	s3,148(sp)
   11724:	09012903          	lw	s2,144(sp)
   11728:	000c0b93          	mv	s7,s8
   1172c:	995ff06f          	j	110c0 <_vfprintf_r+0xd28>
   11730:	02d00793          	li	a5,45
   11734:	06f107a3          	sb	a5,111(sp)
   11738:	41700bb3          	neg	s7,s7
   1173c:	02d00613          	li	a2,45
   11740:	00100793          	li	a5,1
   11744:	b6cff06f          	j	10ab0 <_vfprintf_r+0x718>
   11748:	04812503          	lw	a0,72(sp)
   1174c:	04c12583          	lw	a1,76(sp)
   11750:	02612023          	sw	t1,32(sp)
   11754:	44d040ef          	jal	163a0 <__fpclassifyd>
   11758:	04a12023          	sw	a0,64(sp)
   1175c:	02012303          	lw	t1,32(sp)
   11760:	1a050263          	beqz	a0,11904 <_vfprintf_r+0x156c>
   11764:	fff00793          	li	a5,-1
   11768:	fdf97d13          	andi	s10,s2,-33
   1176c:	3ef98263          	beq	s3,a5,11b50 <_vfprintf_r+0x17b8>
   11770:	04700793          	li	a5,71
   11774:	3cfd0863          	beq	s10,a5,11b44 <_vfprintf_r+0x17ac>
   11778:	04c12a03          	lw	s4,76(sp)
   1177c:	100de793          	ori	a5,s11,256
   11780:	02f12023          	sw	a5,32(sp)
   11784:	04812b83          	lw	s7,72(sp)
   11788:	460a4863          	bltz	s4,11bf8 <_vfprintf_r+0x1860>
   1178c:	02012c23          	sw	zero,56(sp)
   11790:	06600793          	li	a5,102
   11794:	40f90863          	beq	s2,a5,11ba4 <_vfprintf_r+0x180c>
   11798:	04600793          	li	a5,70
   1179c:	56f90c63          	beq	s2,a5,11d14 <_vfprintf_r+0x197c>
   117a0:	fbbd0f13          	addi	t5,s10,-69
   117a4:	001f3f13          	seqz	t5,t5
   117a8:	01e98f33          	add	t5,s3,t5
   117ac:	08410793          	addi	a5,sp,132
   117b0:	00f12023          	sw	a5,0(sp)
   117b4:	000b8613          	mv	a2,s7
   117b8:	000f0793          	mv	a5,t5
   117bc:	000a0693          	mv	a3,s4
   117c0:	07810893          	addi	a7,sp,120
   117c4:	07410813          	addi	a6,sp,116
   117c8:	00200713          	li	a4,2
   117cc:	000b0513          	mv	a0,s6
   117d0:	02612e23          	sw	t1,60(sp)
   117d4:	03e12223          	sw	t5,36(sp)
   117d8:	5a9000ef          	jal	12580 <_dtoa_r>
   117dc:	06700793          	li	a5,103
   117e0:	00050413          	mv	s0,a0
   117e4:	02412f03          	lw	t5,36(sp)
   117e8:	03c12303          	lw	t1,60(sp)
   117ec:	2cf90e63          	beq	s2,a5,11ac8 <_vfprintf_r+0x1730>
   117f0:	04700793          	li	a5,71
   117f4:	01e50833          	add	a6,a0,t5
   117f8:	5af90463          	beq	s2,a5,11da0 <_vfprintf_r+0x1a08>
   117fc:	000b8513          	mv	a0,s7
   11800:	000a0593          	mv	a1,s4
   11804:	00000613          	li	a2,0
   11808:	00000693          	li	a3,0
   1180c:	02612e23          	sw	t1,60(sp)
   11810:	03012223          	sw	a6,36(sp)
   11814:	7a8080ef          	jal	19fbc <__eqdf2>
   11818:	02412803          	lw	a6,36(sp)
   1181c:	03c12303          	lw	t1,60(sp)
   11820:	00080793          	mv	a5,a6
   11824:	02050263          	beqz	a0,11848 <_vfprintf_r+0x14b0>
   11828:	08412783          	lw	a5,132(sp)
   1182c:	0107fe63          	bleu	a6,a5,11848 <_vfprintf_r+0x14b0>
   11830:	03000693          	li	a3,48
   11834:	00178713          	addi	a4,a5,1
   11838:	08e12223          	sw	a4,132(sp)
   1183c:	00d78023          	sb	a3,0(a5)
   11840:	08412783          	lw	a5,132(sp)
   11844:	ff07e8e3          	bltu	a5,a6,11834 <_vfprintf_r+0x149c>
   11848:	408787b3          	sub	a5,a5,s0
   1184c:	04700713          	li	a4,71
   11850:	04f12223          	sw	a5,68(sp)
   11854:	1eed0663          	beq	s10,a4,11a40 <_vfprintf_r+0x16a8>
   11858:	06500793          	li	a5,101
   1185c:	5527de63          	ble	s2,a5,11db8 <_vfprintf_r+0x1a20>
   11860:	06600793          	li	a5,102
   11864:	3ef90663          	beq	s2,a5,11c50 <_vfprintf_r+0x18b8>
   11868:	07412783          	lw	a5,116(sp)
   1186c:	04f12023          	sw	a5,64(sp)
   11870:	04412703          	lw	a4,68(sp)
   11874:	04012783          	lw	a5,64(sp)
   11878:	38e7cc63          	blt	a5,a4,11c10 <_vfprintf_r+0x1878>
   1187c:	001dfe93          	andi	t4,s11,1
   11880:	3a0e9a63          	bnez	t4,11c34 <_vfprintf_r+0x189c>
   11884:	00078a13          	mv	s4,a5
   11888:	5e07c263          	bltz	a5,11e6c <_vfprintf_r+0x1ad4>
   1188c:	04012b83          	lw	s7,64(sp)
   11890:	06700913          	li	s2,103
   11894:	03812783          	lw	a5,56(sp)
   11898:	a6079263          	bnez	a5,10afc <_vfprintf_r+0x764>
   1189c:	06f14603          	lbu	a2,111(sp)
   118a0:	00000993          	li	s3,0
   118a4:	00061463          	bnez	a2,118ac <_vfprintf_r+0x1514>
   118a8:	e4dfe06f          	j	106f4 <_vfprintf_r+0x35c>
   118ac:	a60ff06f          	j	10b0c <_vfprintf_r+0x774>
   118b0:	03012783          	lw	a5,48(sp)
   118b4:	00778793          	addi	a5,a5,7
   118b8:	ff87f793          	andi	a5,a5,-8
   118bc:	0007a703          	lw	a4,0(a5)
   118c0:	00878793          	addi	a5,a5,8
   118c4:	04e12423          	sw	a4,72(sp)
   118c8:	ffc7a703          	lw	a4,-4(a5)
   118cc:	02f12823          	sw	a5,48(sp)
   118d0:	04e12623          	sw	a4,76(sp)
   118d4:	b2cff06f          	j	10c00 <_vfprintf_r+0x868>
   118d8:	08c10613          	addi	a2,sp,140
   118dc:	000a8593          	mv	a1,s5
   118e0:	000b0513          	mv	a0,s6
   118e4:	799040ef          	jal	1687c <__sprint_r>
   118e8:	00050463          	beqz	a0,118f0 <_vfprintf_r+0x1558>
   118ec:	d2dfe06f          	j	10618 <_vfprintf_r+0x280>
   118f0:	000c0313          	mv	t1,s8
   118f4:	e8cff06f          	j	10f80 <_vfprintf_r+0xbe8>
   118f8:	fff00793          	li	a5,-1
   118fc:	02f12423          	sw	a5,40(sp)
   11900:	d29fe06f          	j	10628 <_vfprintf_r+0x290>
   11904:	04700793          	li	a5,71
   11908:	1127ce63          	blt	a5,s2,11a24 <_vfprintf_r+0x168c>
   1190c:	0001b437          	lui	s0,0x1b
   11910:	61440413          	addi	s0,s0,1556 # 1b614 <__clz_tab+0x10c>
   11914:	06f14603          	lbu	a2,111(sp)
   11918:	f7fdf793          	andi	a5,s11,-129
   1191c:	00300a13          	li	s4,3
   11920:	02f12023          	sw	a5,32(sp)
   11924:	00000993          	li	s3,0
   11928:	000a0b93          	mv	s7,s4
   1192c:	00061463          	bnez	a2,11934 <_vfprintf_r+0x159c>
   11930:	dc5fe06f          	j	106f4 <_vfprintf_r+0x35c>
   11934:	9d8ff06f          	j	10b0c <_vfprintf_r+0x774>
   11938:	0001b437          	lui	s0,0x1b
   1193c:	60c40413          	addi	s0,s0,1548 # 1b60c <__clz_tab+0x104>
   11940:	b14ff06f          	j	10c54 <_vfprintf_r+0x8bc>
   11944:	08c10613          	addi	a2,sp,140
   11948:	000a8593          	mv	a1,s5
   1194c:	000b0513          	mv	a0,s6
   11950:	72d040ef          	jal	1687c <__sprint_r>
   11954:	00050463          	beqz	a0,1195c <_vfprintf_r+0x15c4>
   11958:	cc1fe06f          	j	10618 <_vfprintf_r+0x280>
   1195c:	09412783          	lw	a5,148(sp)
   11960:	000c0313          	mv	t1,s8
   11964:	999ff06f          	j	112fc <_vfprintf_r+0xf64>
   11968:	08c10613          	addi	a2,sp,140
   1196c:	000a8593          	mv	a1,s5
   11970:	000b0513          	mv	a0,s6
   11974:	709040ef          	jal	1687c <__sprint_r>
   11978:	00050463          	beqz	a0,11980 <_vfprintf_r+0x15e8>
   1197c:	c9dfe06f          	j	10618 <_vfprintf_r+0x280>
   11980:	07412703          	lw	a4,116(sp)
   11984:	04412683          	lw	a3,68(sp)
   11988:	09412783          	lw	a5,148(sp)
   1198c:	000c0313          	mv	t1,s8
   11990:	40e68733          	sub	a4,a3,a4
   11994:	c45ff06f          	j	115d8 <_vfprintf_r+0x1240>
   11998:	08c10613          	addi	a2,sp,140
   1199c:	000a8593          	mv	a1,s5
   119a0:	000b0513          	mv	a0,s6
   119a4:	6d9040ef          	jal	1687c <__sprint_r>
   119a8:	00050463          	beqz	a0,119b0 <_vfprintf_r+0x1618>
   119ac:	c6dfe06f          	j	10618 <_vfprintf_r+0x280>
   119b0:	09412783          	lw	a5,148(sp)
   119b4:	000c0313          	mv	t1,s8
   119b8:	ad1ff06f          	j	11488 <_vfprintf_r+0x10f0>
   119bc:	00040513          	mv	a0,s0
   119c0:	535040ef          	jal	166f4 <strlen>
   119c4:	00050b93          	mv	s7,a0
   119c8:	00050a13          	mv	s4,a0
   119cc:	02012303          	lw	t1,32(sp)
   119d0:	00054463          	bltz	a0,119d8 <_vfprintf_r+0x1640>
   119d4:	d09fe06f          	j	106dc <_vfprintf_r+0x344>
   119d8:	00000a13          	li	s4,0
   119dc:	d01fe06f          	j	106dc <_vfprintf_r+0x344>
   119e0:	00000913          	li	s2,0
   119e4:	91dff06f          	j	11300 <_vfprintf_r+0xf68>
   119e8:	00000913          	li	s2,0
   119ec:	bf1ff06f          	j	115dc <_vfprintf_r+0x1244>
   119f0:	00600793          	li	a5,6
   119f4:	00098a13          	mv	s4,s3
   119f8:	0137f463          	bleu	s3,a5,11a00 <_vfprintf_r+0x1668>
   119fc:	00078a13          	mv	s4,a5
   11a00:	0001b437          	lui	s0,0x1b
   11a04:	03a12823          	sw	s10,48(sp)
   11a08:	000a0b93          	mv	s7,s4
   11a0c:	03b12023          	sw	s11,32(sp)
   11a10:	00000613          	li	a2,0
   11a14:	00000993          	li	s3,0
   11a18:	04012023          	sw	zero,64(sp)
   11a1c:	64440413          	addi	s0,s0,1604 # 1b644 <__clz_tab+0x13c>
   11a20:	cd5fe06f          	j	106f4 <_vfprintf_r+0x35c>
   11a24:	0001b437          	lui	s0,0x1b
   11a28:	61840413          	addi	s0,s0,1560 # 1b618 <__clz_tab+0x110>
   11a2c:	ee9ff06f          	j	11914 <_vfprintf_r+0x157c>
   11a30:	02d00793          	li	a5,45
   11a34:	06f107a3          	sb	a5,111(sp)
   11a38:	02d00613          	li	a2,45
   11a3c:	a08ff06f          	j	10c44 <_vfprintf_r+0x8ac>
   11a40:	07412783          	lw	a5,116(sp)
   11a44:	00078713          	mv	a4,a5
   11a48:	04f12023          	sw	a5,64(sp)
   11a4c:	ffd00793          	li	a5,-3
   11a50:	00f74463          	blt	a4,a5,11a58 <_vfprintf_r+0x16c0>
   11a54:	e0e9dee3          	ble	a4,s3,11870 <_vfprintf_r+0x14d8>
   11a58:	ffe90913          	addi	s2,s2,-2
   11a5c:	04012783          	lw	a5,64(sp)
   11a60:	07210e23          	sb	s2,124(sp)
   11a64:	fff78d13          	addi	s10,a5,-1
   11a68:	07a12a23          	sw	s10,116(sp)
   11a6c:	3c0d4a63          	bltz	s10,11e40 <_vfprintf_r+0x1aa8>
   11a70:	02b00793          	li	a5,43
   11a74:	06f10ea3          	sb	a5,125(sp)
   11a78:	00900a13          	li	s4,9
   11a7c:	1faa4c63          	blt	s4,s10,11c74 <_vfprintf_r+0x18dc>
   11a80:	03000793          	li	a5,48
   11a84:	030d0d13          	addi	s10,s10,48
   11a88:	06f10f23          	sb	a5,126(sp)
   11a8c:	07a10fa3          	sb	s10,127(sp)
   11a90:	08010793          	addi	a5,sp,128
   11a94:	07c10713          	addi	a4,sp,124
   11a98:	04412683          	lw	a3,68(sp)
   11a9c:	40e787b3          	sub	a5,a5,a4
   11aa0:	00078713          	mv	a4,a5
   11aa4:	04f12e23          	sw	a5,92(sp)
   11aa8:	00100793          	li	a5,1
   11aac:	00e68bb3          	add	s7,a3,a4
   11ab0:	34d7d863          	ble	a3,a5,11e00 <_vfprintf_r+0x1a68>
   11ab4:	001b8b93          	addi	s7,s7,1
   11ab8:	000b8a13          	mv	s4,s7
   11abc:	320bce63          	bltz	s7,11df8 <_vfprintf_r+0x1a60>
   11ac0:	04012023          	sw	zero,64(sp)
   11ac4:	dd1ff06f          	j	11894 <_vfprintf_r+0x14fc>
   11ac8:	001df793          	andi	a5,s11,1
   11acc:	01e50833          	add	a6,a0,t5
   11ad0:	d20796e3          	bnez	a5,117fc <_vfprintf_r+0x1464>
   11ad4:	08412783          	lw	a5,132(sp)
   11ad8:	d71ff06f          	j	11848 <_vfprintf_r+0x14b0>
   11adc:	ff000613          	li	a2,-16
   11ae0:	40d00933          	neg	s2,a3
   11ae4:	06c6da63          	ble	a2,a3,11b58 <_vfprintf_r+0x17c0>
   11ae8:	01000b93          	li	s7,16
   11aec:	00700d13          	li	s10,7
   11af0:	00c0006f          	j	11afc <_vfprintf_r+0x1764>
   11af4:	ff090913          	addi	s2,s2,-16
   11af8:	072bd063          	ble	s2,s7,11b58 <_vfprintf_r+0x17c0>
   11afc:	01078793          	addi	a5,a5,16
   11b00:	00170713          	addi	a4,a4,1
   11b04:	00932023          	sw	s1,0(t1)
   11b08:	01732223          	sw	s7,4(t1)
   11b0c:	08f12a23          	sw	a5,148(sp)
   11b10:	08e12823          	sw	a4,144(sp)
   11b14:	00830313          	addi	t1,t1,8
   11b18:	fced5ee3          	ble	a4,s10,11af4 <_vfprintf_r+0x175c>
   11b1c:	08c10613          	addi	a2,sp,140
   11b20:	000a8593          	mv	a1,s5
   11b24:	000b0513          	mv	a0,s6
   11b28:	555040ef          	jal	1687c <__sprint_r>
   11b2c:	00050463          	beqz	a0,11b34 <_vfprintf_r+0x179c>
   11b30:	ae9fe06f          	j	10618 <_vfprintf_r+0x280>
   11b34:	09412783          	lw	a5,148(sp)
   11b38:	09012703          	lw	a4,144(sp)
   11b3c:	000c0313          	mv	t1,s8
   11b40:	fb5ff06f          	j	11af4 <_vfprintf_r+0x175c>
   11b44:	c2099ae3          	bnez	s3,11778 <_vfprintf_r+0x13e0>
   11b48:	00040993          	mv	s3,s0
   11b4c:	c2dff06f          	j	11778 <_vfprintf_r+0x13e0>
   11b50:	00600993          	li	s3,6
   11b54:	c25ff06f          	j	11778 <_vfprintf_r+0x13e0>
   11b58:	012787b3          	add	a5,a5,s2
   11b5c:	00170713          	addi	a4,a4,1
   11b60:	00932023          	sw	s1,0(t1)
   11b64:	01232223          	sw	s2,4(t1)
   11b68:	08f12a23          	sw	a5,148(sp)
   11b6c:	08e12823          	sw	a4,144(sp)
   11b70:	00700693          	li	a3,7
   11b74:	00830313          	addi	t1,t1,8
   11b78:	b6e6d063          	ble	a4,a3,10ed8 <_vfprintf_r+0xb40>
   11b7c:	08c10613          	addi	a2,sp,140
   11b80:	000a8593          	mv	a1,s5
   11b84:	000b0513          	mv	a0,s6
   11b88:	4f5040ef          	jal	1687c <__sprint_r>
   11b8c:	00050463          	beqz	a0,11b94 <_vfprintf_r+0x17fc>
   11b90:	a89fe06f          	j	10618 <_vfprintf_r+0x280>
   11b94:	09412783          	lw	a5,148(sp)
   11b98:	09012703          	lw	a4,144(sp)
   11b9c:	000c0313          	mv	t1,s8
   11ba0:	b38ff06f          	j	10ed8 <_vfprintf_r+0xb40>
   11ba4:	08410793          	addi	a5,sp,132
   11ba8:	00f12023          	sw	a5,0(sp)
   11bac:	07410813          	addi	a6,sp,116
   11bb0:	000b8613          	mv	a2,s7
   11bb4:	000a0693          	mv	a3,s4
   11bb8:	07810893          	addi	a7,sp,120
   11bbc:	00098793          	mv	a5,s3
   11bc0:	00300713          	li	a4,3
   11bc4:	000b0513          	mv	a0,s6
   11bc8:	02612223          	sw	t1,36(sp)
   11bcc:	1b5000ef          	jal	12580 <_dtoa_r>
   11bd0:	02412303          	lw	t1,36(sp)
   11bd4:	00050413          	mv	s0,a0
   11bd8:	01350833          	add	a6,a0,s3
   11bdc:	00098f13          	mv	t5,s3
   11be0:	00044703          	lbu	a4,0(s0)
   11be4:	03000793          	li	a5,48
   11be8:	16f70a63          	beq	a4,a5,11d5c <_vfprintf_r+0x19c4>
   11bec:	07412f03          	lw	t5,116(sp)
   11bf0:	01e80833          	add	a6,a6,t5
   11bf4:	c09ff06f          	j	117fc <_vfprintf_r+0x1464>
   11bf8:	04c12783          	lw	a5,76(sp)
   11bfc:	80000a37          	lui	s4,0x80000
   11c00:	0147ca33          	xor	s4,a5,s4
   11c04:	02d00793          	li	a5,45
   11c08:	02f12c23          	sw	a5,56(sp)
   11c0c:	b85ff06f          	j	11790 <_vfprintf_r+0x13f8>
   11c10:	04012783          	lw	a5,64(sp)
   11c14:	00100b93          	li	s7,1
   11c18:	20f05e63          	blez	a5,11e34 <_vfprintf_r+0x1a9c>
   11c1c:	04412783          	lw	a5,68(sp)
   11c20:	00fb8bb3          	add	s7,s7,a5
   11c24:	000b8a13          	mv	s4,s7
   11c28:	000bce63          	bltz	s7,11c44 <_vfprintf_r+0x18ac>
   11c2c:	06700913          	li	s2,103
   11c30:	c65ff06f          	j	11894 <_vfprintf_r+0x14fc>
   11c34:	04012783          	lw	a5,64(sp)
   11c38:	00178b93          	addi	s7,a5,1
   11c3c:	000b8a13          	mv	s4,s7
   11c40:	fe0bd6e3          	bgez	s7,11c2c <_vfprintf_r+0x1894>
   11c44:	00000a13          	li	s4,0
   11c48:	06700913          	li	s2,103
   11c4c:	c49ff06f          	j	11894 <_vfprintf_r+0x14fc>
   11c50:	07412783          	lw	a5,116(sp)
   11c54:	04f12023          	sw	a5,64(sp)
   11c58:	18f05063          	blez	a5,11dd8 <_vfprintf_r+0x1a40>
   11c5c:	16099463          	bnez	s3,11dc4 <_vfprintf_r+0x1a2c>
   11c60:	001dfe93          	andi	t4,s11,1
   11c64:	160e9063          	bnez	t4,11dc4 <_vfprintf_r+0x1a2c>
   11c68:	00078a13          	mv	s4,a5
   11c6c:	00078b93          	mv	s7,a5
   11c70:	c25ff06f          	j	11894 <_vfprintf_r+0x14fc>
   11c74:	08b10813          	addi	a6,sp,139
   11c78:	02812e23          	sw	s0,60(sp)
   11c7c:	00a00b93          	li	s7,10
   11c80:	00080413          	mv	s0,a6
   11c84:	00030993          	mv	s3,t1
   11c88:	0080006f          	j	11c90 <_vfprintf_r+0x18f8>
   11c8c:	00060413          	mv	s0,a2
   11c90:	000b8593          	mv	a1,s7
   11c94:	000d0513          	mv	a0,s10
   11c98:	03012223          	sw	a6,36(sp)
   11c9c:	770080ef          	jal	1a40c <__modsi3>
   11ca0:	03050513          	addi	a0,a0,48
   11ca4:	fea40fa3          	sb	a0,-1(s0)
   11ca8:	000b8593          	mv	a1,s7
   11cac:	000d0513          	mv	a0,s10
   11cb0:	6d8080ef          	jal	1a388 <__divsi3>
   11cb4:	00050d13          	mv	s10,a0
   11cb8:	fff40613          	addi	a2,s0,-1
   11cbc:	02412803          	lw	a6,36(sp)
   11cc0:	fcaa46e3          	blt	s4,a0,11c8c <_vfprintf_r+0x18f4>
   11cc4:	03050793          	addi	a5,a0,48
   11cc8:	00098313          	mv	t1,s3
   11ccc:	0ff7f793          	andi	a5,a5,255
   11cd0:	00040993          	mv	s3,s0
   11cd4:	ffe98713          	addi	a4,s3,-2
   11cd8:	fef60fa3          	sb	a5,-1(a2)
   11cdc:	03c12403          	lw	s0,60(sp)
   11ce0:	19077263          	bleu	a6,a4,11e64 <_vfprintf_r+0x1acc>
   11ce4:	07e10693          	addi	a3,sp,126
   11ce8:	0080006f          	j	11cf0 <_vfprintf_r+0x1958>
   11cec:	00074783          	lbu	a5,0(a4)
   11cf0:	00168693          	addi	a3,a3,1
   11cf4:	00170713          	addi	a4,a4,1
   11cf8:	fef68fa3          	sb	a5,-1(a3)
   11cfc:	ff0718e3          	bne	a4,a6,11cec <_vfprintf_r+0x1954>
   11d00:	08c10793          	addi	a5,sp,140
   11d04:	40c787b3          	sub	a5,a5,a2
   11d08:	07e10713          	addi	a4,sp,126
   11d0c:	00f707b3          	add	a5,a4,a5
   11d10:	d85ff06f          	j	11a94 <_vfprintf_r+0x16fc>
   11d14:	08410793          	addi	a5,sp,132
   11d18:	00f12023          	sw	a5,0(sp)
   11d1c:	000b8613          	mv	a2,s7
   11d20:	000a0693          	mv	a3,s4
   11d24:	07810893          	addi	a7,sp,120
   11d28:	07410813          	addi	a6,sp,116
   11d2c:	00098793          	mv	a5,s3
   11d30:	00300713          	li	a4,3
   11d34:	000b0513          	mv	a0,s6
   11d38:	02612223          	sw	t1,36(sp)
   11d3c:	045000ef          	jal	12580 <_dtoa_r>
   11d40:	02412303          	lw	t1,36(sp)
   11d44:	00050413          	mv	s0,a0
   11d48:	00098f13          	mv	t5,s3
   11d4c:	04600793          	li	a5,70
   11d50:	01e40833          	add	a6,s0,t5
   11d54:	e8f906e3          	beq	s2,a5,11be0 <_vfprintf_r+0x1848>
   11d58:	aa5ff06f          	j	117fc <_vfprintf_r+0x1464>
   11d5c:	000b8513          	mv	a0,s7
   11d60:	000a0593          	mv	a1,s4
   11d64:	00000613          	li	a2,0
   11d68:	00000693          	li	a3,0
   11d6c:	04612023          	sw	t1,64(sp)
   11d70:	03012e23          	sw	a6,60(sp)
   11d74:	03e12223          	sw	t5,36(sp)
   11d78:	240080ef          	jal	19fb8 <__nedf2>
   11d7c:	03c12803          	lw	a6,60(sp)
   11d80:	04012303          	lw	t1,64(sp)
   11d84:	e60504e3          	beqz	a0,11bec <_vfprintf_r+0x1854>
   11d88:	02412f03          	lw	t5,36(sp)
   11d8c:	00100793          	li	a5,1
   11d90:	41e78f33          	sub	t5,a5,t5
   11d94:	07e12a23          	sw	t5,116(sp)
   11d98:	01e80833          	add	a6,a6,t5
   11d9c:	a61ff06f          	j	117fc <_vfprintf_r+0x1464>
   11da0:	001df793          	andi	a5,s11,1
   11da4:	fa0794e3          	bnez	a5,11d4c <_vfprintf_r+0x19b4>
   11da8:	08412783          	lw	a5,132(sp)
   11dac:	408787b3          	sub	a5,a5,s0
   11db0:	04f12223          	sw	a5,68(sp)
   11db4:	c92d06e3          	beq	s10,s2,11a40 <_vfprintf_r+0x16a8>
   11db8:	07412783          	lw	a5,116(sp)
   11dbc:	04f12023          	sw	a5,64(sp)
   11dc0:	c9dff06f          	j	11a5c <_vfprintf_r+0x16c4>
   11dc4:	04012783          	lw	a5,64(sp)
   11dc8:	00198e13          	addi	t3,s3,1
   11dcc:	00fe0bb3          	add	s7,t3,a5
   11dd0:	000b8a13          	mv	s4,s7
   11dd4:	ac1ff06f          	j	11894 <_vfprintf_r+0x14fc>
   11dd8:	00099a63          	bnez	s3,11dec <_vfprintf_r+0x1a54>
   11ddc:	00100a13          	li	s4,1
   11de0:	014dfeb3          	and	t4,s11,s4
   11de4:	000a0b93          	mv	s7,s4
   11de8:	aa0e86e3          	beqz	t4,11894 <_vfprintf_r+0x14fc>
   11dec:	00298b93          	addi	s7,s3,2
   11df0:	000b8a13          	mv	s4,s7
   11df4:	aa1ff06f          	j	11894 <_vfprintf_r+0x14fc>
   11df8:	00000a13          	li	s4,0
   11dfc:	cc5ff06f          	j	11ac0 <_vfprintf_r+0x1728>
   11e00:	00fdf7b3          	and	a5,s11,a5
   11e04:	04f12023          	sw	a5,64(sp)
   11e08:	ca0796e3          	bnez	a5,11ab4 <_vfprintf_r+0x171c>
   11e0c:	000b8a13          	mv	s4,s7
   11e10:	a80bd2e3          	bgez	s7,11894 <_vfprintf_r+0x14fc>
   11e14:	00000a13          	li	s4,0
   11e18:	a7dff06f          	j	11894 <_vfprintf_r+0x14fc>
   11e1c:	03012783          	lw	a5,48(sp)
   11e20:	0007a983          	lw	s3,0(a5)
   11e24:	00478793          	addi	a5,a5,4
   11e28:	0209ca63          	bltz	s3,11e5c <_vfprintf_r+0x1ac4>
   11e2c:	02f12823          	sw	a5,48(sp)
   11e30:	f20fe06f          	j	10550 <_vfprintf_r+0x1b8>
   11e34:	00200b93          	li	s7,2
   11e38:	40fb8bb3          	sub	s7,s7,a5
   11e3c:	de1ff06f          	j	11c1c <_vfprintf_r+0x1884>
   11e40:	00100d13          	li	s10,1
   11e44:	40fd0d33          	sub	s10,s10,a5
   11e48:	02d00793          	li	a5,45
   11e4c:	06f10ea3          	sb	a5,125(sp)
   11e50:	c29ff06f          	j	11a78 <_vfprintf_r+0x16e0>
   11e54:	06b107a3          	sb	a1,111(sp)
   11e58:	cf5fe06f          	j	10b4c <_vfprintf_r+0x7b4>
   11e5c:	000f8993          	mv	s3,t6
   11e60:	fcdff06f          	j	11e2c <_vfprintf_r+0x1a94>
   11e64:	07e10793          	addi	a5,sp,126
   11e68:	c2dff06f          	j	11a94 <_vfprintf_r+0x16fc>
   11e6c:	00000a13          	li	s4,0
   11e70:	a1dff06f          	j	1188c <_vfprintf_r+0x14f4>
   11e74:	06b107a3          	sb	a1,111(sp)
   11e78:	d5dfe06f          	j	10bd4 <_vfprintf_r+0x83c>
   11e7c:	06b107a3          	sb	a1,111(sp)
   11e80:	f79fe06f          	j	10df8 <_vfprintf_r+0xa60>
   11e84:	06b107a3          	sb	a1,111(sp)
   11e88:	f29fe06f          	j	10db0 <_vfprintf_r+0xa18>
   11e8c:	06b107a3          	sb	a1,111(sp)
   11e90:	f09fe06f          	j	10d98 <_vfprintf_r+0xa00>
   11e94:	06b107a3          	sb	a1,111(sp)
   11e98:	e51fe06f          	j	10ce8 <_vfprintf_r+0x950>

00011e9c <vfprintf>:
   11e9c:	00060693          	mv	a3,a2
   11ea0:	00058613          	mv	a2,a1
   11ea4:	00050593          	mv	a1,a0
   11ea8:	8081a503          	lw	a0,-2040(gp) # 1d278 <_impure_ptr>
   11eac:	cecfe06f          	j	10398 <_vfprintf_r>

00011eb0 <__sbprintf>:
   11eb0:	00c5d783          	lhu	a5,12(a1)
   11eb4:	0645ae03          	lw	t3,100(a1)
   11eb8:	00e5d303          	lhu	t1,14(a1)
   11ebc:	01c5a883          	lw	a7,28(a1)
   11ec0:	0245a803          	lw	a6,36(a1)
   11ec4:	b8010113          	addi	sp,sp,-1152
   11ec8:	ffd7f793          	andi	a5,a5,-3
   11ecc:	40000713          	li	a4,1024
   11ed0:	46812c23          	sw	s0,1144(sp)
   11ed4:	00f11a23          	sh	a5,20(sp)
   11ed8:	00058413          	mv	s0,a1
   11edc:	07010793          	addi	a5,sp,112
   11ee0:	00810593          	addi	a1,sp,8
   11ee4:	46912a23          	sw	s1,1140(sp)
   11ee8:	47212823          	sw	s2,1136(sp)
   11eec:	46112e23          	sw	ra,1148(sp)
   11ef0:	00050913          	mv	s2,a0
   11ef4:	07c12623          	sw	t3,108(sp)
   11ef8:	00611b23          	sh	t1,22(sp)
   11efc:	03112223          	sw	a7,36(sp)
   11f00:	03012623          	sw	a6,44(sp)
   11f04:	00f12423          	sw	a5,8(sp)
   11f08:	00f12c23          	sw	a5,24(sp)
   11f0c:	00e12823          	sw	a4,16(sp)
   11f10:	00e12e23          	sw	a4,28(sp)
   11f14:	02012023          	sw	zero,32(sp)
   11f18:	c80fe0ef          	jal	10398 <_vfprintf_r>
   11f1c:	00050493          	mv	s1,a0
   11f20:	00054a63          	bltz	a0,11f34 <__sbprintf+0x84>
   11f24:	00810593          	addi	a1,sp,8
   11f28:	00090513          	mv	a0,s2
   11f2c:	591010ef          	jal	13cbc <_fflush_r>
   11f30:	02051c63          	bnez	a0,11f68 <__sbprintf+0xb8>
   11f34:	01415783          	lhu	a5,20(sp)
   11f38:	0407f793          	andi	a5,a5,64
   11f3c:	00078863          	beqz	a5,11f4c <__sbprintf+0x9c>
   11f40:	00c45783          	lhu	a5,12(s0)
   11f44:	0407e793          	ori	a5,a5,64
   11f48:	00f41623          	sh	a5,12(s0)
   11f4c:	47c12083          	lw	ra,1148(sp)
   11f50:	00048513          	mv	a0,s1
   11f54:	47812403          	lw	s0,1144(sp)
   11f58:	47412483          	lw	s1,1140(sp)
   11f5c:	47012903          	lw	s2,1136(sp)
   11f60:	48010113          	addi	sp,sp,1152
   11f64:	00008067          	ret
   11f68:	fff00493          	li	s1,-1
   11f6c:	fc9ff06f          	j	11f34 <__sbprintf+0x84>

00011f70 <__swsetup_r>:
   11f70:	8081a783          	lw	a5,-2040(gp) # 1d278 <_impure_ptr>
   11f74:	ff010113          	addi	sp,sp,-16
   11f78:	00812423          	sw	s0,8(sp)
   11f7c:	00912223          	sw	s1,4(sp)
   11f80:	00112623          	sw	ra,12(sp)
   11f84:	00050493          	mv	s1,a0
   11f88:	00058413          	mv	s0,a1
   11f8c:	00078663          	beqz	a5,11f98 <__swsetup_r+0x28>
   11f90:	0387a703          	lw	a4,56(a5)
   11f94:	0c070c63          	beqz	a4,1206c <__swsetup_r+0xfc>
   11f98:	00c41703          	lh	a4,12(s0)
   11f9c:	01071793          	slli	a5,a4,0x10
   11fa0:	0107d793          	srli	a5,a5,0x10
   11fa4:	0087f693          	andi	a3,a5,8
   11fa8:	04068263          	beqz	a3,11fec <__swsetup_r+0x7c>
   11fac:	01042683          	lw	a3,16(s0)
   11fb0:	06068263          	beqz	a3,12014 <__swsetup_r+0xa4>
   11fb4:	0017f713          	andi	a4,a5,1
   11fb8:	08071063          	bnez	a4,12038 <__swsetup_r+0xc8>
   11fbc:	0027f793          	andi	a5,a5,2
   11fc0:	00000713          	li	a4,0
   11fc4:	00079463          	bnez	a5,11fcc <__swsetup_r+0x5c>
   11fc8:	01442703          	lw	a4,20(s0)
   11fcc:	00e42423          	sw	a4,8(s0)
   11fd0:	00000513          	li	a0,0
   11fd4:	06068e63          	beqz	a3,12050 <__swsetup_r+0xe0>
   11fd8:	00c12083          	lw	ra,12(sp)
   11fdc:	00812403          	lw	s0,8(sp)
   11fe0:	00412483          	lw	s1,4(sp)
   11fe4:	01010113          	addi	sp,sp,16
   11fe8:	00008067          	ret
   11fec:	0107f693          	andi	a3,a5,16
   11ff0:	0a068e63          	beqz	a3,120ac <__swsetup_r+0x13c>
   11ff4:	0047f793          	andi	a5,a5,4
   11ff8:	08079063          	bnez	a5,12078 <__swsetup_r+0x108>
   11ffc:	01042683          	lw	a3,16(s0)
   12000:	00876793          	ori	a5,a4,8
   12004:	00f41623          	sh	a5,12(s0)
   12008:	01079793          	slli	a5,a5,0x10
   1200c:	0107d793          	srli	a5,a5,0x10
   12010:	fa0692e3          	bnez	a3,11fb4 <__swsetup_r+0x44>
   12014:	2807f713          	andi	a4,a5,640
   12018:	20000613          	li	a2,512
   1201c:	f8c70ce3          	beq	a4,a2,11fb4 <__swsetup_r+0x44>
   12020:	00040593          	mv	a1,s0
   12024:	00048513          	mv	a0,s1
   12028:	6c0020ef          	jal	146e8 <__smakebuf_r>
   1202c:	00c45783          	lhu	a5,12(s0)
   12030:	01042683          	lw	a3,16(s0)
   12034:	f81ff06f          	j	11fb4 <__swsetup_r+0x44>
   12038:	01442783          	lw	a5,20(s0)
   1203c:	00042423          	sw	zero,8(s0)
   12040:	00000513          	li	a0,0
   12044:	40f007b3          	neg	a5,a5
   12048:	00f42c23          	sw	a5,24(s0)
   1204c:	f80696e3          	bnez	a3,11fd8 <__swsetup_r+0x68>
   12050:	00c41783          	lh	a5,12(s0)
   12054:	0807f713          	andi	a4,a5,128
   12058:	f80700e3          	beqz	a4,11fd8 <__swsetup_r+0x68>
   1205c:	0407e793          	ori	a5,a5,64
   12060:	00f41623          	sh	a5,12(s0)
   12064:	fff00513          	li	a0,-1
   12068:	f71ff06f          	j	11fd8 <__swsetup_r+0x68>
   1206c:	00078513          	mv	a0,a5
   12070:	00c020ef          	jal	1407c <__sinit>
   12074:	f25ff06f          	j	11f98 <__swsetup_r+0x28>
   12078:	03042583          	lw	a1,48(s0)
   1207c:	00058e63          	beqz	a1,12098 <__swsetup_r+0x128>
   12080:	04040793          	addi	a5,s0,64
   12084:	00f58863          	beq	a1,a5,12094 <__swsetup_r+0x124>
   12088:	00048513          	mv	a0,s1
   1208c:	144020ef          	jal	141d0 <_free_r>
   12090:	00c41703          	lh	a4,12(s0)
   12094:	02042823          	sw	zero,48(s0)
   12098:	01042683          	lw	a3,16(s0)
   1209c:	fdb77713          	andi	a4,a4,-37
   120a0:	00042223          	sw	zero,4(s0)
   120a4:	00d42023          	sw	a3,0(s0)
   120a8:	f59ff06f          	j	12000 <__swsetup_r+0x90>
   120ac:	00900793          	li	a5,9
   120b0:	00f4a023          	sw	a5,0(s1)
   120b4:	04076713          	ori	a4,a4,64
   120b8:	00e41623          	sh	a4,12(s0)
   120bc:	fff00513          	li	a0,-1
   120c0:	f19ff06f          	j	11fd8 <__swsetup_r+0x68>

000120c4 <__register_exitproc>:
   120c4:	fe010113          	addi	sp,sp,-32
   120c8:	00812c23          	sw	s0,24(sp)
   120cc:	8041a403          	lw	s0,-2044(gp) # 1d274 <_global_impure_ptr>
   120d0:	00912a23          	sw	s1,20(sp)
   120d4:	00050493          	mv	s1,a0
   120d8:	14842503          	lw	a0,328(s0)
   120dc:	01212823          	sw	s2,16(sp)
   120e0:	01312623          	sw	s3,12(sp)
   120e4:	01412423          	sw	s4,8(sp)
   120e8:	00112e23          	sw	ra,28(sp)
   120ec:	00058913          	mv	s2,a1
   120f0:	00060a13          	mv	s4,a2
   120f4:	00068993          	mv	s3,a3
   120f8:	0c050063          	beqz	a0,121b8 <__register_exitproc+0xf4>
   120fc:	00452783          	lw	a5,4(a0)
   12100:	01f00713          	li	a4,31
   12104:	00178593          	addi	a1,a5,1
   12108:	04f75063          	ble	a5,a4,12148 <__register_exitproc+0x84>
   1210c:	000007b7          	lui	a5,0x0
   12110:	00078793          	mv	a5,a5
   12114:	0a078863          	beqz	a5,121c4 <__register_exitproc+0x100>
   12118:	19000513          	li	a0,400
   1211c:	fffee317          	auipc	t1,0xfffee
   12120:	ee4300e7          	jalr	t1,-284 # 0 <_ftext-0x10000>
   12124:	0a050063          	beqz	a0,121c4 <__register_exitproc+0x100>
   12128:	14842783          	lw	a5,328(s0)
   1212c:	00052223          	sw	zero,4(a0)
   12130:	00100593          	li	a1,1
   12134:	00f52023          	sw	a5,0(a0)
   12138:	14a42423          	sw	a0,328(s0)
   1213c:	18052423          	sw	zero,392(a0)
   12140:	18052623          	sw	zero,396(a0)
   12144:	00000793          	li	a5,0
   12148:	00279713          	slli	a4,a5,0x2
   1214c:	02049a63          	bnez	s1,12180 <__register_exitproc+0xbc>
   12150:	00b52223          	sw	a1,4(a0)
   12154:	00e50533          	add	a0,a0,a4
   12158:	01252423          	sw	s2,8(a0)
   1215c:	00000513          	li	a0,0
   12160:	01c12083          	lw	ra,28(sp)
   12164:	01812403          	lw	s0,24(sp)
   12168:	01412483          	lw	s1,20(sp)
   1216c:	01012903          	lw	s2,16(sp)
   12170:	00c12983          	lw	s3,12(sp)
   12174:	00812a03          	lw	s4,8(sp)
   12178:	02010113          	addi	sp,sp,32
   1217c:	00008067          	ret
   12180:	00e506b3          	add	a3,a0,a4
   12184:	0946a423          	sw	s4,136(a3)
   12188:	18852803          	lw	a6,392(a0)
   1218c:	00100613          	li	a2,1
   12190:	00f617b3          	sll	a5,a2,a5
   12194:	00f86633          	or	a2,a6,a5
   12198:	18c52423          	sw	a2,392(a0)
   1219c:	1136a423          	sw	s3,264(a3)
   121a0:	00200693          	li	a3,2
   121a4:	fad496e3          	bne	s1,a3,12150 <__register_exitproc+0x8c>
   121a8:	18c52683          	lw	a3,396(a0)
   121ac:	00f6e7b3          	or	a5,a3,a5
   121b0:	18f52623          	sw	a5,396(a0)
   121b4:	f9dff06f          	j	12150 <__register_exitproc+0x8c>
   121b8:	14c40513          	addi	a0,s0,332
   121bc:	14a42423          	sw	a0,328(s0)
   121c0:	f3dff06f          	j	120fc <__register_exitproc+0x38>
   121c4:	fff00513          	li	a0,-1
   121c8:	f99ff06f          	j	12160 <__register_exitproc+0x9c>

000121cc <__call_exitprocs>:
   121cc:	fc010113          	addi	sp,sp,-64
   121d0:	01712e23          	sw	s7,28(sp)
   121d4:	8041ab83          	lw	s7,-2044(gp) # 1d274 <_global_impure_ptr>
   121d8:	03612023          	sw	s6,32(sp)
   121dc:	00000b37          	lui	s6,0x0
   121e0:	03212823          	sw	s2,48(sp)
   121e4:	03412423          	sw	s4,40(sp)
   121e8:	03512223          	sw	s5,36(sp)
   121ec:	01812c23          	sw	s8,24(sp)
   121f0:	01912a23          	sw	s9,20(sp)
   121f4:	02112e23          	sw	ra,60(sp)
   121f8:	02812c23          	sw	s0,56(sp)
   121fc:	02912a23          	sw	s1,52(sp)
   12200:	03312623          	sw	s3,44(sp)
   12204:	01a12823          	sw	s10,16(sp)
   12208:	01b12623          	sw	s11,12(sp)
   1220c:	00050a93          	mv	s5,a0
   12210:	00058913          	mv	s2,a1
   12214:	148b8c13          	addi	s8,s7,328
   12218:	00100a13          	li	s4,1
   1221c:	fff00c93          	li	s9,-1
   12220:	000b0b13          	mv	s6,s6
   12224:	148ba983          	lw	s3,328(s7)
   12228:	06098063          	beqz	s3,12288 <__call_exitprocs+0xbc>
   1222c:	000c0d93          	mv	s11,s8
   12230:	0049a403          	lw	s0,4(s3)
   12234:	00241493          	slli	s1,s0,0x2
   12238:	fff40413          	addi	s0,s0,-1
   1223c:	009984b3          	add	s1,s3,s1
   12240:	00044e63          	bltz	s0,1225c <__call_exitprocs+0x90>
   12244:	08090063          	beqz	s2,122c4 <__call_exitprocs+0xf8>
   12248:	1044a783          	lw	a5,260(s1)
   1224c:	06f90c63          	beq	s2,a5,122c4 <__call_exitprocs+0xf8>
   12250:	fff40413          	addi	s0,s0,-1
   12254:	ffc48493          	addi	s1,s1,-4
   12258:	ff9416e3          	bne	s0,s9,12244 <__call_exitprocs+0x78>
   1225c:	020b0663          	beqz	s6,12288 <__call_exitprocs+0xbc>
   12260:	0049a783          	lw	a5,4(s3)
   12264:	0c079a63          	bnez	a5,12338 <__call_exitprocs+0x16c>
   12268:	0009a783          	lw	a5,0(s3)
   1226c:	00078e63          	beqz	a5,12288 <__call_exitprocs+0xbc>
   12270:	00098513          	mv	a0,s3
   12274:	00fda023          	sw	a5,0(s11)
   12278:	fffee317          	auipc	t1,0xfffee
   1227c:	d88300e7          	jalr	t1,-632 # 0 <_ftext-0x10000>
   12280:	000da983          	lw	s3,0(s11)
   12284:	fa0996e3          	bnez	s3,12230 <__call_exitprocs+0x64>
   12288:	03c12083          	lw	ra,60(sp)
   1228c:	03812403          	lw	s0,56(sp)
   12290:	03412483          	lw	s1,52(sp)
   12294:	03012903          	lw	s2,48(sp)
   12298:	02c12983          	lw	s3,44(sp)
   1229c:	02812a03          	lw	s4,40(sp)
   122a0:	02412a83          	lw	s5,36(sp)
   122a4:	02012b03          	lw	s6,32(sp)
   122a8:	01c12b83          	lw	s7,28(sp)
   122ac:	01812c03          	lw	s8,24(sp)
   122b0:	01412c83          	lw	s9,20(sp)
   122b4:	01012d03          	lw	s10,16(sp)
   122b8:	00c12d83          	lw	s11,12(sp)
   122bc:	04010113          	addi	sp,sp,64
   122c0:	00008067          	ret
   122c4:	0049a783          	lw	a5,4(s3)
   122c8:	0044a703          	lw	a4,4(s1)
   122cc:	fff78793          	addi	a5,a5,-1
   122d0:	04878a63          	beq	a5,s0,12324 <__call_exitprocs+0x158>
   122d4:	0004a223          	sw	zero,4(s1)
   122d8:	f6070ce3          	beqz	a4,12250 <__call_exitprocs+0x84>
   122dc:	1889a783          	lw	a5,392(s3)
   122e0:	008a16b3          	sll	a3,s4,s0
   122e4:	0049ad03          	lw	s10,4(s3)
   122e8:	00f6f7b3          	and	a5,a3,a5
   122ec:	02078863          	beqz	a5,1231c <__call_exitprocs+0x150>
   122f0:	18c9a783          	lw	a5,396(s3)
   122f4:	00f6f6b3          	and	a3,a3,a5
   122f8:	02069a63          	bnez	a3,1232c <__call_exitprocs+0x160>
   122fc:	0844a583          	lw	a1,132(s1)
   12300:	000a8513          	mv	a0,s5
   12304:	000700e7          	jalr	a4
   12308:	0049a783          	lw	a5,4(s3)
   1230c:	f1a79ce3          	bne	a5,s10,12224 <__call_exitprocs+0x58>
   12310:	000da783          	lw	a5,0(s11)
   12314:	f3378ee3          	beq	a5,s3,12250 <__call_exitprocs+0x84>
   12318:	f0dff06f          	j	12224 <__call_exitprocs+0x58>
   1231c:	000700e7          	jalr	a4
   12320:	fe9ff06f          	j	12308 <__call_exitprocs+0x13c>
   12324:	0089a223          	sw	s0,4(s3)
   12328:	fb1ff06f          	j	122d8 <__call_exitprocs+0x10c>
   1232c:	0844a503          	lw	a0,132(s1)
   12330:	000700e7          	jalr	a4
   12334:	fd5ff06f          	j	12308 <__call_exitprocs+0x13c>
   12338:	00098d93          	mv	s11,s3
   1233c:	0009a983          	lw	s3,0(s3)
   12340:	ee0998e3          	bnez	s3,12230 <__call_exitprocs+0x64>
   12344:	f45ff06f          	j	12288 <__call_exitprocs+0xbc>

00012348 <quorem>:
   12348:	fb010113          	addi	sp,sp,-80
   1234c:	03712623          	sw	s7,44(sp)
   12350:	01052783          	lw	a5,16(a0)
   12354:	0105ab83          	lw	s7,16(a1)
   12358:	04112623          	sw	ra,76(sp)
   1235c:	04812423          	sw	s0,72(sp)
   12360:	04912223          	sw	s1,68(sp)
   12364:	05212023          	sw	s2,64(sp)
   12368:	03312e23          	sw	s3,60(sp)
   1236c:	03412c23          	sw	s4,56(sp)
   12370:	03512a23          	sw	s5,52(sp)
   12374:	03612823          	sw	s6,48(sp)
   12378:	03812423          	sw	s8,40(sp)
   1237c:	03912223          	sw	s9,36(sp)
   12380:	03a12023          	sw	s10,32(sp)
   12384:	01b12e23          	sw	s11,28(sp)
   12388:	1f77c863          	blt	a5,s7,12578 <quorem+0x230>
   1238c:	fffb8b93          	addi	s7,s7,-1
   12390:	002b9a93          	slli	s5,s7,0x2
   12394:	01458b13          	addi	s6,a1,20
   12398:	01450493          	addi	s1,a0,20
   1239c:	015b0c33          	add	s8,s6,s5
   123a0:	015487b3          	add	a5,s1,s5
   123a4:	00b12423          	sw	a1,8(sp)
   123a8:	000c2583          	lw	a1,0(s8)
   123ac:	00050913          	mv	s2,a0
   123b0:	0007a503          	lw	a0,0(a5)
   123b4:	00158593          	addi	a1,a1,1
   123b8:	00f12623          	sw	a5,12(sp)
   123bc:	7d5070ef          	jal	1a390 <__udivsi3>
   123c0:	00050413          	mv	s0,a0
   123c4:	0c050463          	beqz	a0,1248c <quorem+0x144>
   123c8:	00010d37          	lui	s10,0x10
   123cc:	000b0a13          	mv	s4,s6
   123d0:	00048d93          	mv	s11,s1
   123d4:	00000c93          	li	s9,0
   123d8:	00000993          	li	s3,0
   123dc:	fffd0d13          	addi	s10,s10,-1 # ffff <_ftext-0x1>
   123e0:	004a0a13          	addi	s4,s4,4 # 80000004 <_gp+0x7ffe2594>
   123e4:	ffca2a83          	lw	s5,-4(s4)
   123e8:	00040593          	mv	a1,s0
   123ec:	004d8d93          	addi	s11,s11,4
   123f0:	01aaf533          	and	a0,s5,s10
   123f4:	6e9070ef          	jal	1a2dc <__mulsi3>
   123f8:	01950cb3          	add	s9,a0,s9
   123fc:	00040593          	mv	a1,s0
   12400:	010ad513          	srli	a0,s5,0x10
   12404:	6d9070ef          	jal	1a2dc <__mulsi3>
   12408:	ffcda783          	lw	a5,-4(s11)
   1240c:	010cd693          	srli	a3,s9,0x10
   12410:	01acf733          	and	a4,s9,s10
   12414:	40e98733          	sub	a4,s3,a4
   12418:	00d50cb3          	add	s9,a0,a3
   1241c:	01a7f6b3          	and	a3,a5,s10
   12420:	00d70733          	add	a4,a4,a3
   12424:	0107d793          	srli	a5,a5,0x10
   12428:	01acf6b3          	and	a3,s9,s10
   1242c:	40d787b3          	sub	a5,a5,a3
   12430:	41075693          	srai	a3,a4,0x10
   12434:	00d787b3          	add	a5,a5,a3
   12438:	01079693          	slli	a3,a5,0x10
   1243c:	01a77733          	and	a4,a4,s10
   12440:	00e6e733          	or	a4,a3,a4
   12444:	feedae23          	sw	a4,-4(s11)
   12448:	010cdc93          	srli	s9,s9,0x10
   1244c:	4107d993          	srai	s3,a5,0x10
   12450:	f94c78e3          	bleu	s4,s8,123e0 <quorem+0x98>
   12454:	00c12703          	lw	a4,12(sp)
   12458:	00072783          	lw	a5,0(a4)
   1245c:	02079863          	bnez	a5,1248c <quorem+0x144>
   12460:	ffc70793          	addi	a5,a4,-4
   12464:	02f4f263          	bleu	a5,s1,12488 <quorem+0x140>
   12468:	ffc72703          	lw	a4,-4(a4)
   1246c:	00070863          	beqz	a4,1247c <quorem+0x134>
   12470:	0180006f          	j	12488 <quorem+0x140>
   12474:	0007a703          	lw	a4,0(a5)
   12478:	00071863          	bnez	a4,12488 <quorem+0x140>
   1247c:	ffc78793          	addi	a5,a5,-4
   12480:	fffb8b93          	addi	s7,s7,-1
   12484:	fef4e8e3          	bltu	s1,a5,12474 <quorem+0x12c>
   12488:	01792823          	sw	s7,16(s2)
   1248c:	00812583          	lw	a1,8(sp)
   12490:	00090513          	mv	a0,s2
   12494:	75c030ef          	jal	15bf0 <__mcmp>
   12498:	0a054063          	bltz	a0,12538 <quorem+0x1f0>
   1249c:	00010537          	lui	a0,0x10
   124a0:	00140413          	addi	s0,s0,1
   124a4:	00048593          	mv	a1,s1
   124a8:	00000793          	li	a5,0
   124ac:	fff50513          	addi	a0,a0,-1 # ffff <_ftext-0x1>
   124b0:	004b0b13          	addi	s6,s6,4 # 4 <_ftext-0xfffc>
   124b4:	ffcb2603          	lw	a2,-4(s6)
   124b8:	0005a703          	lw	a4,0(a1)
   124bc:	00458593          	addi	a1,a1,4
   124c0:	00a676b3          	and	a3,a2,a0
   124c4:	40d787b3          	sub	a5,a5,a3
   124c8:	00a776b3          	and	a3,a4,a0
   124cc:	00d786b3          	add	a3,a5,a3
   124d0:	01065613          	srli	a2,a2,0x10
   124d4:	01075793          	srli	a5,a4,0x10
   124d8:	40c787b3          	sub	a5,a5,a2
   124dc:	4106d713          	srai	a4,a3,0x10
   124e0:	00e787b3          	add	a5,a5,a4
   124e4:	01079713          	slli	a4,a5,0x10
   124e8:	00a6f6b3          	and	a3,a3,a0
   124ec:	00d766b3          	or	a3,a4,a3
   124f0:	fed5ae23          	sw	a3,-4(a1)
   124f4:	4107d793          	srai	a5,a5,0x10
   124f8:	fb6c7ce3          	bleu	s6,s8,124b0 <quorem+0x168>
   124fc:	002b9713          	slli	a4,s7,0x2
   12500:	00e48733          	add	a4,s1,a4
   12504:	00072783          	lw	a5,0(a4)
   12508:	02079863          	bnez	a5,12538 <quorem+0x1f0>
   1250c:	ffc70793          	addi	a5,a4,-4
   12510:	02f4f263          	bleu	a5,s1,12534 <quorem+0x1ec>
   12514:	ffc72703          	lw	a4,-4(a4)
   12518:	00070863          	beqz	a4,12528 <quorem+0x1e0>
   1251c:	0180006f          	j	12534 <quorem+0x1ec>
   12520:	0007a703          	lw	a4,0(a5)
   12524:	00071863          	bnez	a4,12534 <quorem+0x1ec>
   12528:	ffc78793          	addi	a5,a5,-4
   1252c:	fffb8b93          	addi	s7,s7,-1
   12530:	fef4e8e3          	bltu	s1,a5,12520 <quorem+0x1d8>
   12534:	01792823          	sw	s7,16(s2)
   12538:	00040513          	mv	a0,s0
   1253c:	04c12083          	lw	ra,76(sp)
   12540:	04812403          	lw	s0,72(sp)
   12544:	04412483          	lw	s1,68(sp)
   12548:	04012903          	lw	s2,64(sp)
   1254c:	03c12983          	lw	s3,60(sp)
   12550:	03812a03          	lw	s4,56(sp)
   12554:	03412a83          	lw	s5,52(sp)
   12558:	03012b03          	lw	s6,48(sp)
   1255c:	02c12b83          	lw	s7,44(sp)
   12560:	02812c03          	lw	s8,40(sp)
   12564:	02412c83          	lw	s9,36(sp)
   12568:	02012d03          	lw	s10,32(sp)
   1256c:	01c12d83          	lw	s11,28(sp)
   12570:	05010113          	addi	sp,sp,80
   12574:	00008067          	ret
   12578:	00000513          	li	a0,0
   1257c:	fc1ff06f          	j	1253c <quorem+0x1f4>

00012580 <_dtoa_r>:
   12580:	04052303          	lw	t1,64(a0)
   12584:	f6010113          	addi	sp,sp,-160
   12588:	08812c23          	sw	s0,152(sp)
   1258c:	09212823          	sw	s2,144(sp)
   12590:	09412423          	sw	s4,136(sp)
   12594:	07912a23          	sw	s9,116(sp)
   12598:	08112e23          	sw	ra,156(sp)
   1259c:	08912a23          	sw	s1,148(sp)
   125a0:	09312623          	sw	s3,140(sp)
   125a4:	09512223          	sw	s5,132(sp)
   125a8:	09612023          	sw	s6,128(sp)
   125ac:	07712e23          	sw	s7,124(sp)
   125b0:	07812c23          	sw	s8,120(sp)
   125b4:	07a12823          	sw	s10,112(sp)
   125b8:	07b12623          	sw	s11,108(sp)
   125bc:	01012c23          	sw	a6,24(sp)
   125c0:	00c12423          	sw	a2,8(sp)
   125c4:	00d12623          	sw	a3,12(sp)
   125c8:	00050413          	mv	s0,a0
   125cc:	00070a13          	mv	s4,a4
   125d0:	00078c93          	mv	s9,a5
   125d4:	00088913          	mv	s2,a7
   125d8:	02030263          	beqz	t1,125fc <_dtoa_r+0x7c>
   125dc:	04452703          	lw	a4,68(a0)
   125e0:	00100793          	li	a5,1
   125e4:	00030593          	mv	a1,t1
   125e8:	00e797b3          	sll	a5,a5,a4
   125ec:	00e32223          	sw	a4,4(t1)
   125f0:	00f32423          	sw	a5,8(t1)
   125f4:	541020ef          	jal	15334 <_Bfree>
   125f8:	04042023          	sw	zero,64(s0)
   125fc:	00c12483          	lw	s1,12(sp)
   12600:	0e04ce63          	bltz	s1,126fc <_dtoa_r+0x17c>
   12604:	00092023          	sw	zero,0(s2)
   12608:	7ff007b7          	lui	a5,0x7ff00
   1260c:	00f4f733          	and	a4,s1,a5
   12610:	08f70663          	beq	a4,a5,1269c <_dtoa_r+0x11c>
   12614:	00812b03          	lw	s6,8(sp)
   12618:	00c12b83          	lw	s7,12(sp)
   1261c:	00000613          	li	a2,0
   12620:	00000693          	li	a3,0
   12624:	000b0513          	mv	a0,s6
   12628:	000b8593          	mv	a1,s7
   1262c:	191070ef          	jal	19fbc <__eqdf2>
   12630:	0e051663          	bnez	a0,1271c <_dtoa_r+0x19c>
   12634:	01812703          	lw	a4,24(sp)
   12638:	00100793          	li	a5,1
   1263c:	00f72023          	sw	a5,0(a4)
   12640:	0a012783          	lw	a5,160(sp)
   12644:	64078c63          	beqz	a5,12c9c <_dtoa_r+0x71c>
   12648:	0a012703          	lw	a4,160(sp)
   1264c:	0001b7b7          	lui	a5,0x1b
   12650:	64d78793          	addi	a5,a5,1613 # 1b64d <__clz_tab+0x145>
   12654:	0001b4b7          	lui	s1,0x1b
   12658:	00f72023          	sw	a5,0(a4)
   1265c:	64c48513          	addi	a0,s1,1612 # 1b64c <__clz_tab+0x144>
   12660:	09c12083          	lw	ra,156(sp)
   12664:	09812403          	lw	s0,152(sp)
   12668:	09412483          	lw	s1,148(sp)
   1266c:	09012903          	lw	s2,144(sp)
   12670:	08c12983          	lw	s3,140(sp)
   12674:	08812a03          	lw	s4,136(sp)
   12678:	08412a83          	lw	s5,132(sp)
   1267c:	08012b03          	lw	s6,128(sp)
   12680:	07c12b83          	lw	s7,124(sp)
   12684:	07812c03          	lw	s8,120(sp)
   12688:	07412c83          	lw	s9,116(sp)
   1268c:	07012d03          	lw	s10,112(sp)
   12690:	06c12d83          	lw	s11,108(sp)
   12694:	0a010113          	addi	sp,sp,160
   12698:	00008067          	ret
   1269c:	01812703          	lw	a4,24(sp)
   126a0:	000027b7          	lui	a5,0x2
   126a4:	70f78793          	addi	a5,a5,1807 # 270f <_ftext-0xd8f1>
   126a8:	00f72023          	sw	a5,0(a4)
   126ac:	00812783          	lw	a5,8(sp)
   126b0:	02079863          	bnez	a5,126e0 <_dtoa_r+0x160>
   126b4:	00c49793          	slli	a5,s1,0xc
   126b8:	02079463          	bnez	a5,126e0 <_dtoa_r+0x160>
   126bc:	0a012783          	lw	a5,160(sp)
   126c0:	0001b4b7          	lui	s1,0x1b
   126c4:	65048513          	addi	a0,s1,1616 # 1b650 <__clz_tab+0x148>
   126c8:	f8078ce3          	beqz	a5,12660 <_dtoa_r+0xe0>
   126cc:	0001b7b7          	lui	a5,0x1b
   126d0:	65878793          	addi	a5,a5,1624 # 1b658 <__clz_tab+0x150>
   126d4:	0a012703          	lw	a4,160(sp)
   126d8:	00f72023          	sw	a5,0(a4)
   126dc:	f85ff06f          	j	12660 <_dtoa_r+0xe0>
   126e0:	0a012783          	lw	a5,160(sp)
   126e4:	0001b4b7          	lui	s1,0x1b
   126e8:	65c48513          	addi	a0,s1,1628 # 1b65c <__clz_tab+0x154>
   126ec:	f6078ae3          	beqz	a5,12660 <_dtoa_r+0xe0>
   126f0:	0001b7b7          	lui	a5,0x1b
   126f4:	65f78793          	addi	a5,a5,1631 # 1b65f <__clz_tab+0x157>
   126f8:	fddff06f          	j	126d4 <_dtoa_r+0x154>
   126fc:	00c12783          	lw	a5,12(sp)
   12700:	800004b7          	lui	s1,0x80000
   12704:	fff4c493          	not	s1,s1
   12708:	00f4f4b3          	and	s1,s1,a5
   1270c:	00100793          	li	a5,1
   12710:	00f92023          	sw	a5,0(s2)
   12714:	00912623          	sw	s1,12(sp)
   12718:	ef1ff06f          	j	12608 <_dtoa_r+0x88>
   1271c:	05810793          	addi	a5,sp,88
   12720:	05c10713          	addi	a4,sp,92
   12724:	000b0613          	mv	a2,s6
   12728:	000b8693          	mv	a3,s7
   1272c:	00040513          	mv	a0,s0
   12730:	0bd030ef          	jal	15fec <__d2b>
   12734:	0144d993          	srli	s3,s1,0x14
   12738:	00050913          	mv	s2,a0
   1273c:	50098863          	beqz	s3,12c4c <_dtoa_r+0x6cc>
   12740:	001007b7          	lui	a5,0x100
   12744:	fff78793          	addi	a5,a5,-1 # fffff <_gp+0xe258f>
   12748:	c0198493          	addi	s1,s3,-1023
   1274c:	05812983          	lw	s3,88(sp)
   12750:	00fbf7b3          	and	a5,s7,a5
   12754:	3ff00737          	lui	a4,0x3ff00
   12758:	000b0513          	mv	a0,s6
   1275c:	00e7e5b3          	or	a1,a5,a4
   12760:	02012623          	sw	zero,44(sp)
   12764:	0001d7b7          	lui	a5,0x1d
   12768:	2907a603          	lw	a2,656(a5) # 1d290 <__wctomb+0x8>
   1276c:	2947a683          	lw	a3,660(a5)
   12770:	174070ef          	jal	198e4 <__subdf3>
   12774:	0001d7b7          	lui	a5,0x1d
   12778:	2987a603          	lw	a2,664(a5) # 1d298 <__wctomb+0x10>
   1277c:	29c7a683          	lw	a3,668(a5)
   12780:	1c0070ef          	jal	19940 <__muldf3>
   12784:	0001d7b7          	lui	a5,0x1d
   12788:	2a07a603          	lw	a2,672(a5) # 1d2a0 <__wctomb+0x18>
   1278c:	2a47a683          	lw	a3,676(a5)
   12790:	104070ef          	jal	19894 <__adddf3>
   12794:	00050b13          	mv	s6,a0
   12798:	00048513          	mv	a0,s1
   1279c:	00058b93          	mv	s7,a1
   127a0:	071070ef          	jal	1a010 <__floatsidf>
   127a4:	0001d7b7          	lui	a5,0x1d
   127a8:	2a87a603          	lw	a2,680(a5) # 1d2a8 <__wctomb+0x20>
   127ac:	2ac7a683          	lw	a3,684(a5)
   127b0:	190070ef          	jal	19940 <__muldf3>
   127b4:	00050613          	mv	a2,a0
   127b8:	00058693          	mv	a3,a1
   127bc:	000b0513          	mv	a0,s6
   127c0:	000b8593          	mv	a1,s7
   127c4:	0d0070ef          	jal	19894 <__adddf3>
   127c8:	00050d13          	mv	s10,a0
   127cc:	00058d93          	mv	s11,a1
   127d0:	18d070ef          	jal	1a15c <__fixdfsi>
   127d4:	00050b93          	mv	s7,a0
   127d8:	00000613          	li	a2,0
   127dc:	00000693          	li	a3,0
   127e0:	000d0513          	mv	a0,s10
   127e4:	000d8593          	mv	a1,s11
   127e8:	7cc070ef          	jal	19fb4 <__ltdf2>
   127ec:	76054063          	bltz	a0,12f4c <_dtoa_r+0x9cc>
   127f0:	00100713          	li	a4,1
   127f4:	01600793          	li	a5,22
   127f8:	02e12023          	sw	a4,32(sp)
   127fc:	0377ea63          	bltu	a5,s7,12830 <_dtoa_r+0x2b0>
   12800:	0001b737          	lui	a4,0x1b
   12804:	003b9793          	slli	a5,s7,0x3
   12808:	24070713          	addi	a4,a4,576 # 1b240 <__mprec_tens>
   1280c:	00e787b3          	add	a5,a5,a4
   12810:	0007a503          	lw	a0,0(a5)
   12814:	0047a583          	lw	a1,4(a5)
   12818:	00812603          	lw	a2,8(sp)
   1281c:	00c12683          	lw	a3,12(sp)
   12820:	734070ef          	jal	19f54 <__gtdf2>
   12824:	02a05ae3          	blez	a0,13058 <_dtoa_r+0xad8>
   12828:	fffb8b93          	addi	s7,s7,-1
   1282c:	02012023          	sw	zero,32(sp)
   12830:	409984b3          	sub	s1,s3,s1
   12834:	fff48993          	addi	s3,s1,-1 # 7fffffff <_gp+0x7ffe258f>
   12838:	00000d13          	li	s10,0
   1283c:	4609c663          	bltz	s3,12ca8 <_dtoa_r+0x728>
   12840:	6e0bce63          	bltz	s7,12f3c <_dtoa_r+0x9bc>
   12844:	017989b3          	add	s3,s3,s7
   12848:	03712223          	sw	s7,36(sp)
   1284c:	00000c13          	li	s8,0
   12850:	00900793          	li	a5,9
   12854:	4747e263          	bltu	a5,s4,12cb8 <_dtoa_r+0x738>
   12858:	00500793          	li	a5,5
   1285c:	00100a93          	li	s5,1
   12860:	0147d663          	ble	s4,a5,1286c <_dtoa_r+0x2ec>
   12864:	ffca0a13          	addi	s4,s4,-4
   12868:	00000a93          	li	s5,0
   1286c:	00300793          	li	a5,3
   12870:	4efa0ee3          	beq	s4,a5,1356c <_dtoa_r+0xfec>
   12874:	4747d8e3          	ble	s4,a5,134e4 <_dtoa_r+0xf64>
   12878:	00400793          	li	a5,4
   1287c:	32fa04e3          	beq	s4,a5,133a4 <_dtoa_r+0xe24>
   12880:	00100713          	li	a4,1
   12884:	00500793          	li	a5,5
   12888:	00e12e23          	sw	a4,28(sp)
   1288c:	46fa12e3          	bne	s4,a5,134f0 <_dtoa_r+0xf70>
   12890:	019b87b3          	add	a5,s7,s9
   12894:	00178b13          	addi	s6,a5,1
   12898:	02f12423          	sw	a5,40(sp)
   1289c:	000b0613          	mv	a2,s6
   128a0:	3b6054e3          	blez	s6,13448 <_dtoa_r+0xec8>
   128a4:	000b0d93          	mv	s11,s6
   128a8:	04042223          	sw	zero,68(s0)
   128ac:	01700793          	li	a5,23
   128b0:	00000593          	li	a1,0
   128b4:	02c7f263          	bleu	a2,a5,128d8 <_dtoa_r+0x358>
   128b8:	00100713          	li	a4,1
   128bc:	00400793          	li	a5,4
   128c0:	00179793          	slli	a5,a5,0x1
   128c4:	01478693          	addi	a3,a5,20
   128c8:	00070593          	mv	a1,a4
   128cc:	00170713          	addi	a4,a4,1
   128d0:	fed678e3          	bleu	a3,a2,128c0 <_dtoa_r+0x340>
   128d4:	04b42223          	sw	a1,68(s0)
   128d8:	00040513          	mv	a0,s0
   128dc:	1b5020ef          	jal	15290 <_Balloc>
   128e0:	04a42023          	sw	a0,64(s0)
   128e4:	00e00793          	li	a5,14
   128e8:	00050493          	mv	s1,a0
   128ec:	41b7e063          	bltu	a5,s11,12cec <_dtoa_r+0x76c>
   128f0:	3e0a8e63          	beqz	s5,12cec <_dtoa_r+0x76c>
   128f4:	00812503          	lw	a0,8(sp)
   128f8:	00c12583          	lw	a1,12(sp)
   128fc:	04a12023          	sw	a0,64(sp)
   12900:	04b12223          	sw	a1,68(sp)
   12904:	597056e3          	blez	s7,13690 <_dtoa_r+0x1110>
   12908:	00fbf713          	andi	a4,s7,15
   1290c:	0001b6b7          	lui	a3,0x1b
   12910:	24068693          	addi	a3,a3,576 # 1b240 <__mprec_tens>
   12914:	00371713          	slli	a4,a4,0x3
   12918:	404bd793          	srai	a5,s7,0x4
   1291c:	00d70733          	add	a4,a4,a3
   12920:	00a12823          	sw	a0,16(sp)
   12924:	0107f693          	andi	a3,a5,16
   12928:	00b12a23          	sw	a1,20(sp)
   1292c:	00072803          	lw	a6,0(a4)
   12930:	00472883          	lw	a7,4(a4)
   12934:	00200a93          	li	s5,2
   12938:	02068e63          	beqz	a3,12974 <_dtoa_r+0x3f4>
   1293c:	0001b737          	lui	a4,0x1b
   12940:	35072603          	lw	a2,848(a4) # 1b350 <__mprec_bigtens+0x20>
   12944:	35472683          	lw	a3,852(a4)
   12948:	00f7f793          	andi	a5,a5,15
   1294c:	03012823          	sw	a6,48(sp)
   12950:	03112a23          	sw	a7,52(sp)
   12954:	00f12423          	sw	a5,8(sp)
   12958:	2c4070ef          	jal	19c1c <__divdf3>
   1295c:	03012803          	lw	a6,48(sp)
   12960:	03412883          	lw	a7,52(sp)
   12964:	00812783          	lw	a5,8(sp)
   12968:	00a12823          	sw	a0,16(sp)
   1296c:	00b12a23          	sw	a1,20(sp)
   12970:	00300a93          	li	s5,3
   12974:	04078463          	beqz	a5,129bc <_dtoa_r+0x43c>
   12978:	0001b737          	lui	a4,0x1b
   1297c:	33070d93          	addi	s11,a4,816 # 1b330 <__mprec_bigtens>
   12980:	0017f693          	andi	a3,a5,1
   12984:	00080513          	mv	a0,a6
   12988:	4017d793          	srai	a5,a5,0x1
   1298c:	00088593          	mv	a1,a7
   12990:	02068263          	beqz	a3,129b4 <_dtoa_r+0x434>
   12994:	000da603          	lw	a2,0(s11)
   12998:	004da683          	lw	a3,4(s11)
   1299c:	00f12423          	sw	a5,8(sp)
   129a0:	001a8a93          	addi	s5,s5,1
   129a4:	79d060ef          	jal	19940 <__muldf3>
   129a8:	00812783          	lw	a5,8(sp)
   129ac:	00050813          	mv	a6,a0
   129b0:	00058893          	mv	a7,a1
   129b4:	008d8d93          	addi	s11,s11,8
   129b8:	fc0794e3          	bnez	a5,12980 <_dtoa_r+0x400>
   129bc:	01012503          	lw	a0,16(sp)
   129c0:	01412583          	lw	a1,20(sp)
   129c4:	00080613          	mv	a2,a6
   129c8:	00088693          	mv	a3,a7
   129cc:	250070ef          	jal	19c1c <__divdf3>
   129d0:	00a12823          	sw	a0,16(sp)
   129d4:	00b12a23          	sw	a1,20(sp)
   129d8:	02012783          	lw	a5,32(sp)
   129dc:	02078263          	beqz	a5,12a00 <_dtoa_r+0x480>
   129e0:	0001d7b7          	lui	a5,0x1d
   129e4:	2b07a603          	lw	a2,688(a5) # 1d2b0 <__wctomb+0x28>
   129e8:	2b47a683          	lw	a3,692(a5)
   129ec:	01012503          	lw	a0,16(sp)
   129f0:	01412583          	lw	a1,20(sp)
   129f4:	5c0070ef          	jal	19fb4 <__ltdf2>
   129f8:	00055463          	bgez	a0,12a00 <_dtoa_r+0x480>
   129fc:	7210006f          	j	1391c <_dtoa_r+0x139c>
   12a00:	000a8513          	mv	a0,s5
   12a04:	60c070ef          	jal	1a010 <__floatsidf>
   12a08:	01012603          	lw	a2,16(sp)
   12a0c:	01412683          	lw	a3,20(sp)
   12a10:	731060ef          	jal	19940 <__muldf3>
   12a14:	0001d7b7          	lui	a5,0x1d
   12a18:	2c07a603          	lw	a2,704(a5) # 1d2c0 <__wctomb+0x38>
   12a1c:	2c47a683          	lw	a3,708(a5)
   12a20:	675060ef          	jal	19894 <__adddf3>
   12a24:	fcc007b7          	lui	a5,0xfcc00
   12a28:	00050813          	mv	a6,a0
   12a2c:	00b788b3          	add	a7,a5,a1
   12a30:	380b02e3          	beqz	s6,135b4 <_dtoa_r+0x1034>
   12a34:	05712623          	sw	s7,76(sp)
   12a38:	000b0313          	mv	t1,s6
   12a3c:	01c12783          	lw	a5,28(sp)
   12a40:	540780e3          	beqz	a5,13780 <_dtoa_r+0x1200>
   12a44:	fff30793          	addi	a5,t1,-1
   12a48:	0001b737          	lui	a4,0x1b
   12a4c:	24070713          	addi	a4,a4,576 # 1b240 <__mprec_tens>
   12a50:	00379793          	slli	a5,a5,0x3
   12a54:	00e787b3          	add	a5,a5,a4
   12a58:	0007a603          	lw	a2,0(a5) # fcc00000 <_gp+0xfcbe2590>
   12a5c:	0047a683          	lw	a3,4(a5)
   12a60:	0001d7b7          	lui	a5,0x1d
   12a64:	2d07a503          	lw	a0,720(a5) # 1d2d0 <__wctomb+0x48>
   12a68:	2d47a583          	lw	a1,724(a5)
   12a6c:	02612c23          	sw	t1,56(sp)
   12a70:	01012423          	sw	a6,8(sp)
   12a74:	01112623          	sw	a7,12(sp)
   12a78:	1a4070ef          	jal	19c1c <__divdf3>
   12a7c:	00812803          	lw	a6,8(sp)
   12a80:	00c12883          	lw	a7,12(sp)
   12a84:	00148d93          	addi	s11,s1,1
   12a88:	00080613          	mv	a2,a6
   12a8c:	00088693          	mv	a3,a7
   12a90:	655060ef          	jal	198e4 <__subdf3>
   12a94:	00a12423          	sw	a0,8(sp)
   12a98:	00b12623          	sw	a1,12(sp)
   12a9c:	01012503          	lw	a0,16(sp)
   12aa0:	01412583          	lw	a1,20(sp)
   12aa4:	6b8070ef          	jal	1a15c <__fixdfsi>
   12aa8:	00050a93          	mv	s5,a0
   12aac:	564070ef          	jal	1a010 <__floatsidf>
   12ab0:	00050613          	mv	a2,a0
   12ab4:	00058693          	mv	a3,a1
   12ab8:	01012503          	lw	a0,16(sp)
   12abc:	01412583          	lw	a1,20(sp)
   12ac0:	625060ef          	jal	198e4 <__subdf3>
   12ac4:	00050613          	mv	a2,a0
   12ac8:	00058693          	mv	a3,a1
   12acc:	030a8713          	addi	a4,s5,48
   12ad0:	00a12823          	sw	a0,16(sp)
   12ad4:	00b12a23          	sw	a1,20(sp)
   12ad8:	00812503          	lw	a0,8(sp)
   12adc:	00c12583          	lw	a1,12(sp)
   12ae0:	0ff77a93          	andi	s5,a4,255
   12ae4:	01548023          	sb	s5,0(s1)
   12ae8:	46c070ef          	jal	19f54 <__gtdf2>
   12aec:	12a04663          	bgtz	a0,12c18 <_dtoa_r+0x698>
   12af0:	0001d7b7          	lui	a5,0x1d
   12af4:	01012603          	lw	a2,16(sp)
   12af8:	01412683          	lw	a3,20(sp)
   12afc:	2b07a503          	lw	a0,688(a5) # 1d2b0 <__wctomb+0x28>
   12b00:	2b47a583          	lw	a1,692(a5)
   12b04:	02f12823          	sw	a5,48(sp)
   12b08:	5dd060ef          	jal	198e4 <__subdf3>
   12b0c:	00812603          	lw	a2,8(sp)
   12b10:	00c12683          	lw	a3,12(sp)
   12b14:	4a0070ef          	jal	19fb4 <__ltdf2>
   12b18:	00055463          	bgez	a0,12b20 <_dtoa_r+0x5a0>
   12b1c:	6c10006f          	j	139dc <_dtoa_r+0x145c>
   12b20:	03812303          	lw	t1,56(sp)
   12b24:	00100713          	li	a4,1
   12b28:	03012783          	lw	a5,48(sp)
   12b2c:	34e308e3          	beq	t1,a4,1367c <_dtoa_r+0x10fc>
   12b30:	0001d737          	lui	a4,0x1d
   12b34:	2b872603          	lw	a2,696(a4) # 1d2b8 <__wctomb+0x30>
   12b38:	2bc72683          	lw	a3,700(a4)
   12b3c:	2b07a703          	lw	a4,688(a5)
   12b40:	2b47a783          	lw	a5,692(a5)
   12b44:	02c12823          	sw	a2,48(sp)
   12b48:	02d12a23          	sw	a3,52(sp)
   12b4c:	02f12e23          	sw	a5,60(sp)
   12b50:	006487b3          	add	a5,s1,t1
   12b54:	02e12c23          	sw	a4,56(sp)
   12b58:	04f12423          	sw	a5,72(sp)
   12b5c:	0280006f          	j	12b84 <_dtoa_r+0x604>
   12b60:	03812503          	lw	a0,56(sp)
   12b64:	03c12583          	lw	a1,60(sp)
   12b68:	57d060ef          	jal	198e4 <__subdf3>
   12b6c:	00812603          	lw	a2,8(sp)
   12b70:	00c12683          	lw	a3,12(sp)
   12b74:	440070ef          	jal	19fb4 <__ltdf2>
   12b78:	660542e3          	bltz	a0,139dc <_dtoa_r+0x145c>
   12b7c:	04812783          	lw	a5,72(sp)
   12b80:	2efd8ee3          	beq	s11,a5,1367c <_dtoa_r+0x10fc>
   12b84:	03012603          	lw	a2,48(sp)
   12b88:	03412683          	lw	a3,52(sp)
   12b8c:	00812503          	lw	a0,8(sp)
   12b90:	00c12583          	lw	a1,12(sp)
   12b94:	001d8d93          	addi	s11,s11,1
   12b98:	5a9060ef          	jal	19940 <__muldf3>
   12b9c:	0001d7b7          	lui	a5,0x1d
   12ba0:	2b87a603          	lw	a2,696(a5) # 1d2b8 <__wctomb+0x30>
   12ba4:	2bc7a683          	lw	a3,700(a5)
   12ba8:	00a12423          	sw	a0,8(sp)
   12bac:	00b12623          	sw	a1,12(sp)
   12bb0:	01012503          	lw	a0,16(sp)
   12bb4:	01412583          	lw	a1,20(sp)
   12bb8:	589060ef          	jal	19940 <__muldf3>
   12bbc:	00b12a23          	sw	a1,20(sp)
   12bc0:	00a12823          	sw	a0,16(sp)
   12bc4:	598070ef          	jal	1a15c <__fixdfsi>
   12bc8:	00050a93          	mv	s5,a0
   12bcc:	444070ef          	jal	1a010 <__floatsidf>
   12bd0:	01012803          	lw	a6,16(sp)
   12bd4:	01412883          	lw	a7,20(sp)
   12bd8:	00050613          	mv	a2,a0
   12bdc:	00058693          	mv	a3,a1
   12be0:	00080513          	mv	a0,a6
   12be4:	00088593          	mv	a1,a7
   12be8:	4fd060ef          	jal	198e4 <__subdf3>
   12bec:	030a8713          	addi	a4,s5,48
   12bf0:	00812603          	lw	a2,8(sp)
   12bf4:	00c12683          	lw	a3,12(sp)
   12bf8:	0ff77a93          	andi	s5,a4,255
   12bfc:	ff5d8fa3          	sb	s5,-1(s11)
   12c00:	00a12823          	sw	a0,16(sp)
   12c04:	00b12a23          	sw	a1,20(sp)
   12c08:	3ac070ef          	jal	19fb4 <__ltdf2>
   12c0c:	01012603          	lw	a2,16(sp)
   12c10:	01412683          	lw	a3,20(sp)
   12c14:	f40556e3          	bgez	a0,12b60 <_dtoa_r+0x5e0>
   12c18:	04c12b83          	lw	s7,76(sp)
   12c1c:	00090593          	mv	a1,s2
   12c20:	00040513          	mv	a0,s0
   12c24:	710020ef          	jal	15334 <_Bfree>
   12c28:	01812783          	lw	a5,24(sp)
   12c2c:	000d8023          	sb	zero,0(s11)
   12c30:	001b8b93          	addi	s7,s7,1
   12c34:	0177a023          	sw	s7,0(a5)
   12c38:	0a012783          	lw	a5,160(sp)
   12c3c:	1e0784e3          	beqz	a5,13624 <_dtoa_r+0x10a4>
   12c40:	01b7a023          	sw	s11,0(a5)
   12c44:	00048513          	mv	a0,s1
   12c48:	a19ff06f          	j	12660 <_dtoa_r+0xe0>
   12c4c:	05812983          	lw	s3,88(sp)
   12c50:	05c12a83          	lw	s5,92(sp)
   12c54:	02000793          	li	a5,32
   12c58:	01598ab3          	add	s5,s3,s5
   12c5c:	432a8713          	addi	a4,s5,1074
   12c60:	40e7d063          	ble	a4,a5,13060 <_dtoa_r+0xae0>
   12c64:	04000793          	li	a5,64
   12c68:	40e787b3          	sub	a5,a5,a4
   12c6c:	00812703          	lw	a4,8(sp)
   12c70:	412a8513          	addi	a0,s5,1042
   12c74:	00f494b3          	sll	s1,s1,a5
   12c78:	00a75533          	srl	a0,a4,a0
   12c7c:	00956533          	or	a0,a0,s1
   12c80:	454070ef          	jal	1a0d4 <__floatunsidf>
   12c84:	fe1007b7          	lui	a5,0xfe100
   12c88:	00b785b3          	add	a1,a5,a1
   12c8c:	00100793          	li	a5,1
   12c90:	fffa8493          	addi	s1,s5,-1
   12c94:	02f12623          	sw	a5,44(sp)
   12c98:	acdff06f          	j	12764 <_dtoa_r+0x1e4>
   12c9c:	0001b4b7          	lui	s1,0x1b
   12ca0:	64c48513          	addi	a0,s1,1612 # 1b64c <__clz_tab+0x144>
   12ca4:	9bdff06f          	j	12660 <_dtoa_r+0xe0>
   12ca8:	00100d13          	li	s10,1
   12cac:	409d0d33          	sub	s10,s10,s1
   12cb0:	00000993          	li	s3,0
   12cb4:	b8dff06f          	j	12840 <_dtoa_r+0x2c0>
   12cb8:	04042223          	sw	zero,68(s0)
   12cbc:	00000593          	li	a1,0
   12cc0:	00040513          	mv	a0,s0
   12cc4:	5cc020ef          	jal	15290 <_Balloc>
   12cc8:	fff00793          	li	a5,-1
   12ccc:	02f12423          	sw	a5,40(sp)
   12cd0:	00078b13          	mv	s6,a5
   12cd4:	00100793          	li	a5,1
   12cd8:	00050493          	mv	s1,a0
   12cdc:	04a42023          	sw	a0,64(s0)
   12ce0:	00000a13          	li	s4,0
   12ce4:	00000c93          	li	s9,0
   12ce8:	00f12e23          	sw	a5,28(sp)
   12cec:	05c12783          	lw	a5,92(sp)
   12cf0:	1e07c863          	bltz	a5,12ee0 <_dtoa_r+0x960>
   12cf4:	00e00713          	li	a4,14
   12cf8:	1f774463          	blt	a4,s7,12ee0 <_dtoa_r+0x960>
   12cfc:	0001b737          	lui	a4,0x1b
   12d00:	24070713          	addi	a4,a4,576 # 1b240 <__mprec_tens>
   12d04:	003b9793          	slli	a5,s7,0x3
   12d08:	00e787b3          	add	a5,a5,a4
   12d0c:	0007a703          	lw	a4,0(a5) # fe100000 <_gp+0xfe0e2590>
   12d10:	0047a783          	lw	a5,4(a5)
   12d14:	00e12823          	sw	a4,16(sp)
   12d18:	00f12a23          	sw	a5,20(sp)
   12d1c:	6a0cc463          	bltz	s9,133c4 <_dtoa_r+0xe44>
   12d20:	01412d83          	lw	s11,20(sp)
   12d24:	00812a03          	lw	s4,8(sp)
   12d28:	00c12a83          	lw	s5,12(sp)
   12d2c:	01012d03          	lw	s10,16(sp)
   12d30:	000d8693          	mv	a3,s11
   12d34:	000a0513          	mv	a0,s4
   12d38:	000d0613          	mv	a2,s10
   12d3c:	000a8593          	mv	a1,s5
   12d40:	6dd060ef          	jal	19c1c <__divdf3>
   12d44:	418070ef          	jal	1a15c <__fixdfsi>
   12d48:	00050c13          	mv	s8,a0
   12d4c:	2c4070ef          	jal	1a010 <__floatsidf>
   12d50:	000d8693          	mv	a3,s11
   12d54:	000d0613          	mv	a2,s10
   12d58:	3e9060ef          	jal	19940 <__muldf3>
   12d5c:	00050613          	mv	a2,a0
   12d60:	00058693          	mv	a3,a1
   12d64:	000a0513          	mv	a0,s4
   12d68:	000a8593          	mv	a1,s5
   12d6c:	379060ef          	jal	198e4 <__subdf3>
   12d70:	030c0793          	addi	a5,s8,48
   12d74:	00100713          	li	a4,1
   12d78:	00f48023          	sb	a5,0(s1)
   12d7c:	00050813          	mv	a6,a0
   12d80:	00058893          	mv	a7,a1
   12d84:	00e48db3          	add	s11,s1,a4
   12d88:	0ceb0c63          	beq	s6,a4,12e60 <_dtoa_r+0x8e0>
   12d8c:	0001d737          	lui	a4,0x1d
   12d90:	2b872603          	lw	a2,696(a4) # 1d2b8 <__wctomb+0x30>
   12d94:	2bc72683          	lw	a3,700(a4)
   12d98:	00e12423          	sw	a4,8(sp)
   12d9c:	3a5060ef          	jal	19940 <__muldf3>
   12da0:	00000613          	li	a2,0
   12da4:	00000693          	li	a3,0
   12da8:	00050a13          	mv	s4,a0
   12dac:	00058a93          	mv	s5,a1
   12db0:	20c070ef          	jal	19fbc <__eqdf2>
   12db4:	00812703          	lw	a4,8(sp)
   12db8:	e60502e3          	beqz	a0,12c1c <_dtoa_r+0x69c>
   12dbc:	2bc72783          	lw	a5,700(a4)
   12dc0:	2b872703          	lw	a4,696(a4)
   12dc4:	00248993          	addi	s3,s1,2
   12dc8:	00f12623          	sw	a5,12(sp)
   12dcc:	00e12423          	sw	a4,8(sp)
   12dd0:	01648b33          	add	s6,s1,s6
   12dd4:	0240006f          	j	12df8 <_dtoa_r+0x878>
   12dd8:	369060ef          	jal	19940 <__muldf3>
   12ddc:	00000613          	li	a2,0
   12de0:	00000693          	li	a3,0
   12de4:	00050a13          	mv	s4,a0
   12de8:	00058a93          	mv	s5,a1
   12dec:	00198993          	addi	s3,s3,1
   12df0:	1cc070ef          	jal	19fbc <__eqdf2>
   12df4:	e20504e3          	beqz	a0,12c1c <_dtoa_r+0x69c>
   12df8:	01412d83          	lw	s11,20(sp)
   12dfc:	01012d03          	lw	s10,16(sp)
   12e00:	000a0513          	mv	a0,s4
   12e04:	000d8693          	mv	a3,s11
   12e08:	000d0613          	mv	a2,s10
   12e0c:	000a8593          	mv	a1,s5
   12e10:	60d060ef          	jal	19c1c <__divdf3>
   12e14:	348070ef          	jal	1a15c <__fixdfsi>
   12e18:	00050c13          	mv	s8,a0
   12e1c:	1f4070ef          	jal	1a010 <__floatsidf>
   12e20:	000d8693          	mv	a3,s11
   12e24:	000d0613          	mv	a2,s10
   12e28:	319060ef          	jal	19940 <__muldf3>
   12e2c:	00050613          	mv	a2,a0
   12e30:	00058693          	mv	a3,a1
   12e34:	000a0513          	mv	a0,s4
   12e38:	000a8593          	mv	a1,s5
   12e3c:	2a9060ef          	jal	198e4 <__subdf3>
   12e40:	030c0793          	addi	a5,s8,48
   12e44:	fef98fa3          	sb	a5,-1(s3)
   12e48:	00050813          	mv	a6,a0
   12e4c:	00058893          	mv	a7,a1
   12e50:	00812603          	lw	a2,8(sp)
   12e54:	00c12683          	lw	a3,12(sp)
   12e58:	00098d93          	mv	s11,s3
   12e5c:	f73b1ee3          	bne	s6,s3,12dd8 <_dtoa_r+0x858>
   12e60:	00080613          	mv	a2,a6
   12e64:	00088693          	mv	a3,a7
   12e68:	00080513          	mv	a0,a6
   12e6c:	00088593          	mv	a1,a7
   12e70:	225060ef          	jal	19894 <__adddf3>
   12e74:	00050a13          	mv	s4,a0
   12e78:	00058a93          	mv	s5,a1
   12e7c:	00050613          	mv	a2,a0
   12e80:	00058693          	mv	a3,a1
   12e84:	01012503          	lw	a0,16(sp)
   12e88:	01412583          	lw	a1,20(sp)
   12e8c:	128070ef          	jal	19fb4 <__ltdf2>
   12e90:	02054263          	bltz	a0,12eb4 <_dtoa_r+0x934>
   12e94:	01012503          	lw	a0,16(sp)
   12e98:	01412583          	lw	a1,20(sp)
   12e9c:	000a0613          	mv	a2,s4
   12ea0:	000a8693          	mv	a3,s5
   12ea4:	118070ef          	jal	19fbc <__eqdf2>
   12ea8:	d6051ae3          	bnez	a0,12c1c <_dtoa_r+0x69c>
   12eac:	001c7c13          	andi	s8,s8,1
   12eb0:	d60c06e3          	beqz	s8,12c1c <_dtoa_r+0x69c>
   12eb4:	fffdca83          	lbu	s5,-1(s11)
   12eb8:	03900613          	li	a2,57
   12ebc:	0100006f          	j	12ecc <_dtoa_r+0x94c>
   12ec0:	069686e3          	beq	a3,s1,1372c <_dtoa_r+0x11ac>
   12ec4:	fff6ca83          	lbu	s5,-1(a3)
   12ec8:	00068d93          	mv	s11,a3
   12ecc:	fffd8693          	addi	a3,s11,-1
   12ed0:	feca88e3          	beq	s5,a2,12ec0 <_dtoa_r+0x940>
   12ed4:	001a8713          	addi	a4,s5,1
   12ed8:	00e68023          	sb	a4,0(a3)
   12edc:	d41ff06f          	j	12c1c <_dtoa_r+0x69c>
   12ee0:	01c12703          	lw	a4,28(sp)
   12ee4:	08070863          	beqz	a4,12f74 <_dtoa_r+0x9f4>
   12ee8:	00100713          	li	a4,1
   12eec:	55475263          	ble	s4,a4,13430 <_dtoa_r+0xeb0>
   12ef0:	fffb0713          	addi	a4,s6,-1
   12ef4:	40ec0db3          	sub	s11,s8,a4
   12ef8:	00ec5e63          	ble	a4,s8,12f14 <_dtoa_r+0x994>
   12efc:	02412783          	lw	a5,36(sp)
   12f00:	41870c33          	sub	s8,a4,s8
   12f04:	00000d93          	li	s11,0
   12f08:	018787b3          	add	a5,a5,s8
   12f0c:	02f12223          	sw	a5,36(sp)
   12f10:	00070c13          	mv	s8,a4
   12f14:	01a12823          	sw	s10,16(sp)
   12f18:	000b0793          	mv	a5,s6
   12f1c:	1c0b48e3          	bltz	s6,138ec <_dtoa_r+0x136c>
   12f20:	00100593          	li	a1,1
   12f24:	00040513          	mv	a0,s0
   12f28:	00fd0d33          	add	s10,s10,a5
   12f2c:	00f989b3          	add	s3,s3,a5
   12f30:	7ac020ef          	jal	156dc <__i2b>
   12f34:	00050a93          	mv	s5,a0
   12f38:	0480006f          	j	12f80 <_dtoa_r+0xa00>
   12f3c:	417d0d33          	sub	s10,s10,s7
   12f40:	41700c33          	neg	s8,s7
   12f44:	02012223          	sw	zero,36(sp)
   12f48:	909ff06f          	j	12850 <_dtoa_r+0x2d0>
   12f4c:	000b8513          	mv	a0,s7
   12f50:	0c0070ef          	jal	1a010 <__floatsidf>
   12f54:	00050613          	mv	a2,a0
   12f58:	00058693          	mv	a3,a1
   12f5c:	000d0513          	mv	a0,s10
   12f60:	000d8593          	mv	a1,s11
   12f64:	054070ef          	jal	19fb8 <__nedf2>
   12f68:	00a03533          	snez	a0,a0
   12f6c:	40ab8bb3          	sub	s7,s7,a0
   12f70:	881ff06f          	j	127f0 <_dtoa_r+0x270>
   12f74:	000c0d93          	mv	s11,s8
   12f78:	01a12823          	sw	s10,16(sp)
   12f7c:	00000a93          	li	s5,0
   12f80:	01012703          	lw	a4,16(sp)
   12f84:	00070793          	mv	a5,a4
   12f88:	02e05063          	blez	a4,12fa8 <_dtoa_r+0xa28>
   12f8c:	01305e63          	blez	s3,12fa8 <_dtoa_r+0xa28>
   12f90:	3ce9ca63          	blt	s3,a4,13364 <_dtoa_r+0xde4>
   12f94:	01012703          	lw	a4,16(sp)
   12f98:	40fd0d33          	sub	s10,s10,a5
   12f9c:	40f989b3          	sub	s3,s3,a5
   12fa0:	40f70733          	sub	a4,a4,a5
   12fa4:	00e12823          	sw	a4,16(sp)
   12fa8:	040c0a63          	beqz	s8,12ffc <_dtoa_r+0xa7c>
   12fac:	01c12783          	lw	a5,28(sp)
   12fb0:	46078463          	beqz	a5,13418 <_dtoa_r+0xe98>
   12fb4:	05b05063          	blez	s11,12ff4 <_dtoa_r+0xa74>
   12fb8:	000a8593          	mv	a1,s5
   12fbc:	000d8613          	mv	a2,s11
   12fc0:	00040513          	mv	a0,s0
   12fc4:	19d020ef          	jal	15960 <__pow5mult>
   12fc8:	00090613          	mv	a2,s2
   12fcc:	00050593          	mv	a1,a0
   12fd0:	00050a93          	mv	s5,a0
   12fd4:	00040513          	mv	a0,s0
   12fd8:	738020ef          	jal	15710 <__multiply>
   12fdc:	02a12623          	sw	a0,44(sp)
   12fe0:	00090593          	mv	a1,s2
   12fe4:	00040513          	mv	a0,s0
   12fe8:	34c020ef          	jal	15334 <_Bfree>
   12fec:	02c12783          	lw	a5,44(sp)
   12ff0:	00078913          	mv	s2,a5
   12ff4:	41bc0633          	sub	a2,s8,s11
   12ff8:	42061263          	bnez	a2,1341c <_dtoa_r+0xe9c>
   12ffc:	00100593          	li	a1,1
   13000:	00040513          	mv	a0,s0
   13004:	6d8020ef          	jal	156dc <__i2b>
   13008:	02412783          	lw	a5,36(sp)
   1300c:	00050c13          	mv	s8,a0
   13010:	06f05063          	blez	a5,13070 <_dtoa_r+0xaf0>
   13014:	00078613          	mv	a2,a5
   13018:	00050593          	mv	a1,a0
   1301c:	00040513          	mv	a0,s0
   13020:	141020ef          	jal	15960 <__pow5mult>
   13024:	00100793          	li	a5,1
   13028:	00050c13          	mv	s8,a0
   1302c:	3547d063          	ble	s4,a5,1336c <_dtoa_r+0xdec>
   13030:	00000d93          	li	s11,0
   13034:	010c2783          	lw	a5,16(s8)
   13038:	00378793          	addi	a5,a5,3
   1303c:	00279793          	slli	a5,a5,0x2
   13040:	00fc07b3          	add	a5,s8,a5
   13044:	0047a503          	lw	a0,4(a5)
   13048:	564020ef          	jal	155ac <__hi0bits>
   1304c:	02000793          	li	a5,32
   13050:	40a787b3          	sub	a5,a5,a0
   13054:	0340006f          	j	13088 <_dtoa_r+0xb08>
   13058:	02012023          	sw	zero,32(sp)
   1305c:	fd4ff06f          	j	12830 <_dtoa_r+0x2b0>
   13060:	40e787b3          	sub	a5,a5,a4
   13064:	00812703          	lw	a4,8(sp)
   13068:	00f71533          	sll	a0,a4,a5
   1306c:	c15ff06f          	j	12c80 <_dtoa_r+0x700>
   13070:	00100793          	li	a5,1
   13074:	00000d93          	li	s11,0
   13078:	4547d663          	ble	s4,a5,134c4 <_dtoa_r+0xf44>
   1307c:	02412703          	lw	a4,36(sp)
   13080:	00100793          	li	a5,1
   13084:	fa0718e3          	bnez	a4,13034 <_dtoa_r+0xab4>
   13088:	013787b3          	add	a5,a5,s3
   1308c:	01f7f793          	andi	a5,a5,31
   13090:	1a078a63          	beqz	a5,13244 <_dtoa_r+0xcc4>
   13094:	02000713          	li	a4,32
   13098:	40f70733          	sub	a4,a4,a5
   1309c:	00400693          	li	a3,4
   130a0:	18e6d4e3          	ble	a4,a3,13a28 <_dtoa_r+0x14a8>
   130a4:	01c00713          	li	a4,28
   130a8:	40f707b3          	sub	a5,a4,a5
   130ac:	01012703          	lw	a4,16(sp)
   130b0:	00fd0d33          	add	s10,s10,a5
   130b4:	00f989b3          	add	s3,s3,a5
   130b8:	00f70733          	add	a4,a4,a5
   130bc:	00e12823          	sw	a4,16(sp)
   130c0:	01a05c63          	blez	s10,130d8 <_dtoa_r+0xb58>
   130c4:	00090593          	mv	a1,s2
   130c8:	000d0613          	mv	a2,s10
   130cc:	00040513          	mv	a0,s0
   130d0:	1d9020ef          	jal	15aa8 <__lshift>
   130d4:	00050913          	mv	s2,a0
   130d8:	01305c63          	blez	s3,130f0 <_dtoa_r+0xb70>
   130dc:	000c0593          	mv	a1,s8
   130e0:	00098613          	mv	a2,s3
   130e4:	00040513          	mv	a0,s0
   130e8:	1c1020ef          	jal	15aa8 <__lshift>
   130ec:	00050c13          	mv	s8,a0
   130f0:	02012783          	lw	a5,32(sp)
   130f4:	14079c63          	bnez	a5,1324c <_dtoa_r+0xccc>
   130f8:	43605663          	blez	s6,13524 <_dtoa_r+0xfa4>
   130fc:	01c12783          	lw	a5,28(sp)
   13100:	18078c63          	beqz	a5,13298 <_dtoa_r+0xd18>
   13104:	01012783          	lw	a5,16(sp)
   13108:	00f05c63          	blez	a5,13120 <_dtoa_r+0xba0>
   1310c:	000a8593          	mv	a1,s5
   13110:	00078613          	mv	a2,a5
   13114:	00040513          	mv	a0,s0
   13118:	191020ef          	jal	15aa8 <__lshift>
   1311c:	00050a93          	mv	s5,a0
   13120:	000a8d13          	mv	s10,s5
   13124:	600d9e63          	bnez	s11,13740 <_dtoa_r+0x11c0>
   13128:	016487b3          	add	a5,s1,s6
   1312c:	02f12023          	sw	a5,32(sp)
   13130:	00812783          	lw	a5,8(sp)
   13134:	00148993          	addi	s3,s1,1
   13138:	0017f793          	andi	a5,a5,1
   1313c:	00f12823          	sw	a5,16(sp)
   13140:	000c0593          	mv	a1,s8
   13144:	00090513          	mv	a0,s2
   13148:	a00ff0ef          	jal	12348 <quorem>
   1314c:	00050d93          	mv	s11,a0
   13150:	000a8593          	mv	a1,s5
   13154:	00090513          	mv	a0,s2
   13158:	299020ef          	jal	15bf0 <__mcmp>
   1315c:	00050b13          	mv	s6,a0
   13160:	000d0613          	mv	a2,s10
   13164:	000c0593          	mv	a1,s8
   13168:	00040513          	mv	a0,s0
   1316c:	2dd020ef          	jal	15c48 <__mdiff>
   13170:	00c52683          	lw	a3,12(a0)
   13174:	fff98713          	addi	a4,s3,-1
   13178:	00e12e23          	sw	a4,28(sp)
   1317c:	00050793          	mv	a5,a0
   13180:	030d8c93          	addi	s9,s11,48
   13184:	00100713          	li	a4,1
   13188:	00069e63          	bnez	a3,131a4 <_dtoa_r+0xc24>
   1318c:	00050593          	mv	a1,a0
   13190:	00a12423          	sw	a0,8(sp)
   13194:	00090513          	mv	a0,s2
   13198:	259020ef          	jal	15bf0 <__mcmp>
   1319c:	00812783          	lw	a5,8(sp)
   131a0:	00050713          	mv	a4,a0
   131a4:	00078593          	mv	a1,a5
   131a8:	00040513          	mv	a0,s0
   131ac:	00e12423          	sw	a4,8(sp)
   131b0:	184020ef          	jal	15334 <_Bfree>
   131b4:	00812703          	lw	a4,8(sp)
   131b8:	014767b3          	or	a5,a4,s4
   131bc:	00079663          	bnez	a5,131c8 <_dtoa_r+0xc48>
   131c0:	01012783          	lw	a5,16(sp)
   131c4:	28078663          	beqz	a5,13450 <_dtoa_r+0xed0>
   131c8:	2a0b4863          	bltz	s6,13478 <_dtoa_r+0xef8>
   131cc:	014b6b33          	or	s6,s6,s4
   131d0:	000b1663          	bnez	s6,131dc <_dtoa_r+0xc5c>
   131d4:	01012783          	lw	a5,16(sp)
   131d8:	2a078063          	beqz	a5,13478 <_dtoa_r+0xef8>
   131dc:	6ee04a63          	bgtz	a4,138d0 <_dtoa_r+0x1350>
   131e0:	02012783          	lw	a5,32(sp)
   131e4:	ff998fa3          	sb	s9,-1(s3)
   131e8:	00098d93          	mv	s11,s3
   131ec:	6f378a63          	beq	a5,s3,138e0 <_dtoa_r+0x1360>
   131f0:	00090593          	mv	a1,s2
   131f4:	00000693          	li	a3,0
   131f8:	00a00613          	li	a2,10
   131fc:	00040513          	mv	a0,s0
   13200:	158020ef          	jal	15358 <__multadd>
   13204:	00050913          	mv	s2,a0
   13208:	00000693          	li	a3,0
   1320c:	00a00613          	li	a2,10
   13210:	000a8593          	mv	a1,s5
   13214:	00040513          	mv	a0,s0
   13218:	2baa8c63          	beq	s5,s10,134d0 <_dtoa_r+0xf50>
   1321c:	13c020ef          	jal	15358 <__multadd>
   13220:	000d0593          	mv	a1,s10
   13224:	00050a93          	mv	s5,a0
   13228:	00000693          	li	a3,0
   1322c:	00a00613          	li	a2,10
   13230:	00040513          	mv	a0,s0
   13234:	124020ef          	jal	15358 <__multadd>
   13238:	00050d13          	mv	s10,a0
   1323c:	00198993          	addi	s3,s3,1
   13240:	f01ff06f          	j	13140 <_dtoa_r+0xbc0>
   13244:	01c00793          	li	a5,28
   13248:	e65ff06f          	j	130ac <_dtoa_r+0xb2c>
   1324c:	000c0593          	mv	a1,s8
   13250:	00090513          	mv	a0,s2
   13254:	19d020ef          	jal	15bf0 <__mcmp>
   13258:	ea0550e3          	bgez	a0,130f8 <_dtoa_r+0xb78>
   1325c:	00090593          	mv	a1,s2
   13260:	00000693          	li	a3,0
   13264:	00a00613          	li	a2,10
   13268:	00040513          	mv	a0,s0
   1326c:	0ec020ef          	jal	15358 <__multadd>
   13270:	01c12783          	lw	a5,28(sp)
   13274:	00050913          	mv	s2,a0
   13278:	fffb8b93          	addi	s7,s7,-1
   1327c:	76079c63          	bnez	a5,139f4 <_dtoa_r+0x1474>
   13280:	02812783          	lw	a5,40(sp)
   13284:	00078b13          	mv	s6,a5
   13288:	00f04863          	bgtz	a5,13298 <_dtoa_r+0xd18>
   1328c:	00200793          	li	a5,2
   13290:	7b47c463          	blt	a5,s4,13a38 <_dtoa_r+0x14b8>
   13294:	02812b03          	lw	s6,40(sp)
   13298:	00048993          	mv	s3,s1
   1329c:	00a00a13          	li	s4,10
   132a0:	00c0006f          	j	132ac <_dtoa_r+0xd2c>
   132a4:	0b4020ef          	jal	15358 <__multadd>
   132a8:	00050913          	mv	s2,a0
   132ac:	000c0593          	mv	a1,s8
   132b0:	00090513          	mv	a0,s2
   132b4:	894ff0ef          	jal	12348 <quorem>
   132b8:	00198993          	addi	s3,s3,1
   132bc:	03050c93          	addi	s9,a0,48
   132c0:	ff998fa3          	sb	s9,-1(s3)
   132c4:	409987b3          	sub	a5,s3,s1
   132c8:	00000693          	li	a3,0
   132cc:	000a0613          	mv	a2,s4
   132d0:	00090593          	mv	a1,s2
   132d4:	00040513          	mv	a0,s0
   132d8:	fd67c6e3          	blt	a5,s6,132a4 <_dtoa_r+0xd24>
   132dc:	63605063          	blez	s6,138fc <_dtoa_r+0x137c>
   132e0:	01648db3          	add	s11,s1,s6
   132e4:	00000993          	li	s3,0
   132e8:	00090593          	mv	a1,s2
   132ec:	00100613          	li	a2,1
   132f0:	00040513          	mv	a0,s0
   132f4:	7b4020ef          	jal	15aa8 <__lshift>
   132f8:	000c0593          	mv	a1,s8
   132fc:	00050913          	mv	s2,a0
   13300:	0f1020ef          	jal	15bf0 <__mcmp>
   13304:	34a05863          	blez	a0,13654 <_dtoa_r+0x10d4>
   13308:	fffdc683          	lbu	a3,-1(s11)
   1330c:	03900613          	li	a2,57
   13310:	0100006f          	j	13320 <_dtoa_r+0xda0>
   13314:	26970063          	beq	a4,s1,13574 <_dtoa_r+0xff4>
   13318:	fff74683          	lbu	a3,-1(a4)
   1331c:	00070d93          	mv	s11,a4
   13320:	fffd8713          	addi	a4,s11,-1
   13324:	fec688e3          	beq	a3,a2,13314 <_dtoa_r+0xd94>
   13328:	00168693          	addi	a3,a3,1
   1332c:	00d70023          	sb	a3,0(a4)
   13330:	000c0593          	mv	a1,s8
   13334:	00040513          	mv	a0,s0
   13338:	7fd010ef          	jal	15334 <_Bfree>
   1333c:	8e0a80e3          	beqz	s5,12c1c <_dtoa_r+0x69c>
   13340:	00098a63          	beqz	s3,13354 <_dtoa_r+0xdd4>
   13344:	01598863          	beq	s3,s5,13354 <_dtoa_r+0xdd4>
   13348:	00098593          	mv	a1,s3
   1334c:	00040513          	mv	a0,s0
   13350:	7e5010ef          	jal	15334 <_Bfree>
   13354:	000a8593          	mv	a1,s5
   13358:	00040513          	mv	a0,s0
   1335c:	7d9010ef          	jal	15334 <_Bfree>
   13360:	8bdff06f          	j	12c1c <_dtoa_r+0x69c>
   13364:	00098793          	mv	a5,s3
   13368:	c2dff06f          	j	12f94 <_dtoa_r+0xa14>
   1336c:	00812783          	lw	a5,8(sp)
   13370:	cc0790e3          	bnez	a5,13030 <_dtoa_r+0xab0>
   13374:	00c12683          	lw	a3,12(sp)
   13378:	00000d93          	li	s11,0
   1337c:	00c69713          	slli	a4,a3,0xc
   13380:	ce071ee3          	bnez	a4,1307c <_dtoa_r+0xafc>
   13384:	7ff007b7          	lui	a5,0x7ff00
   13388:	00d7f7b3          	and	a5,a5,a3
   1338c:	ce0788e3          	beqz	a5,1307c <_dtoa_r+0xafc>
   13390:	00100793          	li	a5,1
   13394:	001d0d13          	addi	s10,s10,1
   13398:	00198993          	addi	s3,s3,1
   1339c:	00078d93          	mv	s11,a5
   133a0:	cddff06f          	j	1307c <_dtoa_r+0xafc>
   133a4:	00100793          	li	a5,1
   133a8:	00f12e23          	sw	a5,28(sp)
   133ac:	29905063          	blez	s9,1362c <_dtoa_r+0x10ac>
   133b0:	000c8613          	mv	a2,s9
   133b4:	000c8d93          	mv	s11,s9
   133b8:	03912423          	sw	s9,40(sp)
   133bc:	000c8b13          	mv	s6,s9
   133c0:	ce8ff06f          	j	128a8 <_dtoa_r+0x328>
   133c4:	95604ee3          	bgtz	s6,12d20 <_dtoa_r+0x7a0>
   133c8:	240b1863          	bnez	s6,13618 <_dtoa_r+0x1098>
   133cc:	0001d7b7          	lui	a5,0x1d
   133d0:	2c87a603          	lw	a2,712(a5) # 1d2c8 <__wctomb+0x40>
   133d4:	2cc7a683          	lw	a3,716(a5)
   133d8:	01012503          	lw	a0,16(sp)
   133dc:	01412583          	lw	a1,20(sp)
   133e0:	00000c13          	li	s8,0
   133e4:	00000a93          	li	s5,0
   133e8:	558060ef          	jal	19940 <__muldf3>
   133ec:	00812603          	lw	a2,8(sp)
   133f0:	00c12683          	lw	a3,12(sp)
   133f4:	2fd060ef          	jal	19ef0 <__gedf2>
   133f8:	16054063          	bltz	a0,13558 <_dtoa_r+0xfd8>
   133fc:	fffccb93          	not	s7,s9
   13400:	00048d93          	mv	s11,s1
   13404:	000c0593          	mv	a1,s8
   13408:	00040513          	mv	a0,s0
   1340c:	729010ef          	jal	15334 <_Bfree>
   13410:	800a86e3          	beqz	s5,12c1c <_dtoa_r+0x69c>
   13414:	f41ff06f          	j	13354 <_dtoa_r+0xdd4>
   13418:	000c0613          	mv	a2,s8
   1341c:	00090593          	mv	a1,s2
   13420:	00040513          	mv	a0,s0
   13424:	53c020ef          	jal	15960 <__pow5mult>
   13428:	00050913          	mv	s2,a0
   1342c:	bd1ff06f          	j	12ffc <_dtoa_r+0xa7c>
   13430:	02c12703          	lw	a4,44(sp)
   13434:	4c070863          	beqz	a4,13904 <_dtoa_r+0x1384>
   13438:	43378793          	addi	a5,a5,1075
   1343c:	000c0d93          	mv	s11,s8
   13440:	01a12823          	sw	s10,16(sp)
   13444:	addff06f          	j	12f20 <_dtoa_r+0x9a0>
   13448:	00100613          	li	a2,1
   1344c:	c58ff06f          	j	128a4 <_dtoa_r+0x324>
   13450:	03900793          	li	a5,57
   13454:	04fc8863          	beq	s9,a5,134a4 <_dtoa_r+0xf24>
   13458:	01605463          	blez	s6,13460 <_dtoa_r+0xee0>
   1345c:	031d8c93          	addi	s9,s11,49
   13460:	01c12783          	lw	a5,28(sp)
   13464:	000a8993          	mv	s3,s5
   13468:	000d0a93          	mv	s5,s10
   1346c:	00178d93          	addi	s11,a5,1
   13470:	01978023          	sb	s9,0(a5)
   13474:	ebdff06f          	j	13330 <_dtoa_r+0xdb0>
   13478:	fee054e3          	blez	a4,13460 <_dtoa_r+0xee0>
   1347c:	00090593          	mv	a1,s2
   13480:	00100613          	li	a2,1
   13484:	00040513          	mv	a0,s0
   13488:	620020ef          	jal	15aa8 <__lshift>
   1348c:	000c0593          	mv	a1,s8
   13490:	00050913          	mv	s2,a0
   13494:	75c020ef          	jal	15bf0 <__mcmp>
   13498:	54a05663          	blez	a0,139e4 <_dtoa_r+0x1464>
   1349c:	03900793          	li	a5,57
   134a0:	fafc9ee3          	bne	s9,a5,1345c <_dtoa_r+0xedc>
   134a4:	01c12783          	lw	a5,28(sp)
   134a8:	03900713          	li	a4,57
   134ac:	000a8993          	mv	s3,s5
   134b0:	00178d93          	addi	s11,a5,1
   134b4:	00e78023          	sb	a4,0(a5)
   134b8:	000d0a93          	mv	s5,s10
   134bc:	03900693          	li	a3,57
   134c0:	e4dff06f          	j	1330c <_dtoa_r+0xd8c>
   134c4:	00812783          	lw	a5,8(sp)
   134c8:	ba079ae3          	bnez	a5,1307c <_dtoa_r+0xafc>
   134cc:	ea9ff06f          	j	13374 <_dtoa_r+0xdf4>
   134d0:	689010ef          	jal	15358 <__multadd>
   134d4:	00050a93          	mv	s5,a0
   134d8:	00050d13          	mv	s10,a0
   134dc:	00198993          	addi	s3,s3,1
   134e0:	c61ff06f          	j	13140 <_dtoa_r+0xbc0>
   134e4:	00200793          	li	a5,2
   134e8:	00012e23          	sw	zero,28(sp)
   134ec:	ecfa00e3          	beq	s4,a5,133ac <_dtoa_r+0xe2c>
   134f0:	04042223          	sw	zero,68(s0)
   134f4:	00000593          	li	a1,0
   134f8:	00040513          	mv	a0,s0
   134fc:	595010ef          	jal	15290 <_Balloc>
   13500:	fff00793          	li	a5,-1
   13504:	02f12423          	sw	a5,40(sp)
   13508:	00078b13          	mv	s6,a5
   1350c:	00100793          	li	a5,1
   13510:	00050493          	mv	s1,a0
   13514:	04a42023          	sw	a0,64(s0)
   13518:	00000c93          	li	s9,0
   1351c:	00f12e23          	sw	a5,28(sp)
   13520:	fccff06f          	j	12cec <_dtoa_r+0x76c>
   13524:	00200793          	li	a5,2
   13528:	bd47dae3          	ble	s4,a5,130fc <_dtoa_r+0xb7c>
   1352c:	ec0b18e3          	bnez	s6,133fc <_dtoa_r+0xe7c>
   13530:	000c0593          	mv	a1,s8
   13534:	00000693          	li	a3,0
   13538:	00500613          	li	a2,5
   1353c:	00040513          	mv	a0,s0
   13540:	619010ef          	jal	15358 <__multadd>
   13544:	00050c13          	mv	s8,a0
   13548:	00050593          	mv	a1,a0
   1354c:	00090513          	mv	a0,s2
   13550:	6a0020ef          	jal	15bf0 <__mcmp>
   13554:	eaa054e3          	blez	a0,133fc <_dtoa_r+0xe7c>
   13558:	03100713          	li	a4,49
   1355c:	00148d93          	addi	s11,s1,1
   13560:	00e48023          	sb	a4,0(s1)
   13564:	001b8b93          	addi	s7,s7,1
   13568:	e9dff06f          	j	13404 <_dtoa_r+0xe84>
   1356c:	00012e23          	sw	zero,28(sp)
   13570:	b20ff06f          	j	12890 <_dtoa_r+0x310>
   13574:	03100713          	li	a4,49
   13578:	001b8b93          	addi	s7,s7,1
   1357c:	00e48023          	sb	a4,0(s1)
   13580:	db1ff06f          	j	13330 <_dtoa_r+0xdb0>
   13584:	000a8513          	mv	a0,s5
   13588:	289060ef          	jal	1a010 <__floatsidf>
   1358c:	01012603          	lw	a2,16(sp)
   13590:	01412683          	lw	a3,20(sp)
   13594:	3ac060ef          	jal	19940 <__muldf3>
   13598:	0001d7b7          	lui	a5,0x1d
   1359c:	2c07a603          	lw	a2,704(a5) # 1d2c0 <__wctomb+0x38>
   135a0:	2c47a683          	lw	a3,708(a5)
   135a4:	2f0060ef          	jal	19894 <__adddf3>
   135a8:	fcc007b7          	lui	a5,0xfcc00
   135ac:	00050813          	mv	a6,a0
   135b0:	00b788b3          	add	a7,a5,a1
   135b4:	0001d7b7          	lui	a5,0x1d
   135b8:	2c87a603          	lw	a2,712(a5) # 1d2c8 <__wctomb+0x40>
   135bc:	2cc7a683          	lw	a3,716(a5)
   135c0:	01012503          	lw	a0,16(sp)
   135c4:	01412583          	lw	a1,20(sp)
   135c8:	01012423          	sw	a6,8(sp)
   135cc:	01112623          	sw	a7,12(sp)
   135d0:	314060ef          	jal	198e4 <__subdf3>
   135d4:	00812803          	lw	a6,8(sp)
   135d8:	00c12883          	lw	a7,12(sp)
   135dc:	00a12823          	sw	a0,16(sp)
   135e0:	00080613          	mv	a2,a6
   135e4:	00088693          	mv	a3,a7
   135e8:	00b12a23          	sw	a1,20(sp)
   135ec:	169060ef          	jal	19f54 <__gtdf2>
   135f0:	2ca04a63          	bgtz	a0,138c4 <_dtoa_r+0x1344>
   135f4:	00812803          	lw	a6,8(sp)
   135f8:	00c12883          	lw	a7,12(sp)
   135fc:	01012503          	lw	a0,16(sp)
   13600:	01412583          	lw	a1,20(sp)
   13604:	800007b7          	lui	a5,0x80000
   13608:	00080613          	mv	a2,a6
   1360c:	0117c6b3          	xor	a3,a5,a7
   13610:	1a5060ef          	jal	19fb4 <__ltdf2>
   13614:	06055463          	bgez	a0,1367c <_dtoa_r+0x10fc>
   13618:	00000c13          	li	s8,0
   1361c:	00000a93          	li	s5,0
   13620:	dddff06f          	j	133fc <_dtoa_r+0xe7c>
   13624:	00048513          	mv	a0,s1
   13628:	838ff06f          	j	12660 <_dtoa_r+0xe0>
   1362c:	04042223          	sw	zero,68(s0)
   13630:	00000593          	li	a1,0
   13634:	00040513          	mv	a0,s0
   13638:	459010ef          	jal	15290 <_Balloc>
   1363c:	00100c93          	li	s9,1
   13640:	00050493          	mv	s1,a0
   13644:	04a42023          	sw	a0,64(s0)
   13648:	03912423          	sw	s9,40(sp)
   1364c:	000c8b13          	mv	s6,s9
   13650:	aa0ff06f          	j	128f0 <_dtoa_r+0x370>
   13654:	00051663          	bnez	a0,13660 <_dtoa_r+0x10e0>
   13658:	001cfc93          	andi	s9,s9,1
   1365c:	ca0c96e3          	bnez	s9,13308 <_dtoa_r+0xd88>
   13660:	03000613          	li	a2,48
   13664:	0080006f          	j	1366c <_dtoa_r+0x10ec>
   13668:	00068d93          	mv	s11,a3
   1366c:	fffdc703          	lbu	a4,-1(s11)
   13670:	fffd8693          	addi	a3,s11,-1
   13674:	fec70ae3          	beq	a4,a2,13668 <_dtoa_r+0x10e8>
   13678:	cb9ff06f          	j	13330 <_dtoa_r+0xdb0>
   1367c:	04012703          	lw	a4,64(sp)
   13680:	04412783          	lw	a5,68(sp)
   13684:	00e12423          	sw	a4,8(sp)
   13688:	00f12623          	sw	a5,12(sp)
   1368c:	e60ff06f          	j	12cec <_dtoa_r+0x76c>
   13690:	04012503          	lw	a0,64(sp)
   13694:	04412583          	lw	a1,68(sp)
   13698:	00200a93          	li	s5,2
   1369c:	00a12823          	sw	a0,16(sp)
   136a0:	00b12a23          	sw	a1,20(sp)
   136a4:	b20b8a63          	beqz	s7,129d8 <_dtoa_r+0x458>
   136a8:	417007b3          	neg	a5,s7
   136ac:	00f7f713          	andi	a4,a5,15
   136b0:	0001b6b7          	lui	a3,0x1b
   136b4:	24068693          	addi	a3,a3,576 # 1b240 <__mprec_tens>
   136b8:	00371713          	slli	a4,a4,0x3
   136bc:	00d70733          	add	a4,a4,a3
   136c0:	00072603          	lw	a2,0(a4)
   136c4:	00472683          	lw	a3,4(a4)
   136c8:	4047d793          	srai	a5,a5,0x4
   136cc:	00f12423          	sw	a5,8(sp)
   136d0:	270060ef          	jal	19940 <__muldf3>
   136d4:	00812783          	lw	a5,8(sp)
   136d8:	00a12823          	sw	a0,16(sp)
   136dc:	00b12a23          	sw	a1,20(sp)
   136e0:	ae078c63          	beqz	a5,129d8 <_dtoa_r+0x458>
   136e4:	0001b737          	lui	a4,0x1b
   136e8:	33070d93          	addi	s11,a4,816 # 1b330 <__mprec_bigtens>
   136ec:	0017f693          	andi	a3,a5,1
   136f0:	01012503          	lw	a0,16(sp)
   136f4:	4017d793          	srai	a5,a5,0x1
   136f8:	01412583          	lw	a1,20(sp)
   136fc:	02068263          	beqz	a3,13720 <_dtoa_r+0x11a0>
   13700:	000da603          	lw	a2,0(s11)
   13704:	004da683          	lw	a3,4(s11)
   13708:	00f12423          	sw	a5,8(sp)
   1370c:	001a8a93          	addi	s5,s5,1
   13710:	230060ef          	jal	19940 <__muldf3>
   13714:	00812783          	lw	a5,8(sp)
   13718:	00a12823          	sw	a0,16(sp)
   1371c:	00b12a23          	sw	a1,20(sp)
   13720:	008d8d93          	addi	s11,s11,8
   13724:	fc0794e3          	bnez	a5,136ec <_dtoa_r+0x116c>
   13728:	ab0ff06f          	j	129d8 <_dtoa_r+0x458>
   1372c:	03000713          	li	a4,48
   13730:	00e48023          	sb	a4,0(s1)
   13734:	001b8b93          	addi	s7,s7,1
   13738:	fffdca83          	lbu	s5,-1(s11)
   1373c:	f98ff06f          	j	12ed4 <_dtoa_r+0x954>
   13740:	004aa583          	lw	a1,4(s5)
   13744:	00040513          	mv	a0,s0
   13748:	349010ef          	jal	15290 <_Balloc>
   1374c:	010aa603          	lw	a2,16(s5)
   13750:	00050993          	mv	s3,a0
   13754:	00ca8593          	addi	a1,s5,12
   13758:	00260613          	addi	a2,a2,2
   1375c:	00261613          	slli	a2,a2,0x2
   13760:	00c50513          	addi	a0,a0,12
   13764:	12d010ef          	jal	15090 <memcpy>
   13768:	00100613          	li	a2,1
   1376c:	00098593          	mv	a1,s3
   13770:	00040513          	mv	a0,s0
   13774:	334020ef          	jal	15aa8 <__lshift>
   13778:	00050d13          	mv	s10,a0
   1377c:	9adff06f          	j	13128 <_dtoa_r+0xba8>
   13780:	fff30793          	addi	a5,t1,-1
   13784:	0001b737          	lui	a4,0x1b
   13788:	24070713          	addi	a4,a4,576 # 1b240 <__mprec_tens>
   1378c:	00379793          	slli	a5,a5,0x3
   13790:	00e787b3          	add	a5,a5,a4
   13794:	0007a503          	lw	a0,0(a5) # 80000000 <_gp+0x7ffe2590>
   13798:	0047a583          	lw	a1,4(a5)
   1379c:	00080613          	mv	a2,a6
   137a0:	00088693          	mv	a3,a7
   137a4:	00612423          	sw	t1,8(sp)
   137a8:	198060ef          	jal	19940 <__muldf3>
   137ac:	02a12c23          	sw	a0,56(sp)
   137b0:	02b12e23          	sw	a1,60(sp)
   137b4:	01012503          	lw	a0,16(sp)
   137b8:	01412583          	lw	a1,20(sp)
   137bc:	00148d93          	addi	s11,s1,1
   137c0:	19d060ef          	jal	1a15c <__fixdfsi>
   137c4:	00050a93          	mv	s5,a0
   137c8:	049060ef          	jal	1a010 <__floatsidf>
   137cc:	00058693          	mv	a3,a1
   137d0:	00050613          	mv	a2,a0
   137d4:	01412583          	lw	a1,20(sp)
   137d8:	01012503          	lw	a0,16(sp)
   137dc:	030a8a93          	addi	s5,s5,48
   137e0:	104060ef          	jal	198e4 <__subdf3>
   137e4:	00812303          	lw	t1,8(sp)
   137e8:	01548023          	sb	s5,0(s1)
   137ec:	00100693          	li	a3,1
   137f0:	006487b3          	add	a5,s1,t1
   137f4:	00f12823          	sw	a5,16(sp)
   137f8:	00050813          	mv	a6,a0
   137fc:	00058893          	mv	a7,a1
   13800:	0001d737          	lui	a4,0x1d
   13804:	06d30a63          	beq	t1,a3,13878 <_dtoa_r+0x12f8>
   13808:	2bc72783          	lw	a5,700(a4) # 1d2bc <__wctomb+0x34>
   1380c:	2b872703          	lw	a4,696(a4)
   13810:	02f12a23          	sw	a5,52(sp)
   13814:	02e12823          	sw	a4,48(sp)
   13818:	03012603          	lw	a2,48(sp)
   1381c:	03412683          	lw	a3,52(sp)
   13820:	00080513          	mv	a0,a6
   13824:	00088593          	mv	a1,a7
   13828:	118060ef          	jal	19940 <__muldf3>
   1382c:	00b12623          	sw	a1,12(sp)
   13830:	00a12423          	sw	a0,8(sp)
   13834:	129060ef          	jal	1a15c <__fixdfsi>
   13838:	00050a93          	mv	s5,a0
   1383c:	7d4060ef          	jal	1a010 <__floatsidf>
   13840:	00812803          	lw	a6,8(sp)
   13844:	00c12883          	lw	a7,12(sp)
   13848:	00050613          	mv	a2,a0
   1384c:	00058693          	mv	a3,a1
   13850:	00080513          	mv	a0,a6
   13854:	00088593          	mv	a1,a7
   13858:	08c060ef          	jal	198e4 <__subdf3>
   1385c:	01012783          	lw	a5,16(sp)
   13860:	001d8d93          	addi	s11,s11,1
   13864:	030a8713          	addi	a4,s5,48
   13868:	feed8fa3          	sb	a4,-1(s11)
   1386c:	00050813          	mv	a6,a0
   13870:	00058893          	mv	a7,a1
   13874:	fafd92e3          	bne	s11,a5,13818 <_dtoa_r+0x1298>
   13878:	0001dab7          	lui	s5,0x1d
   1387c:	2d0aa603          	lw	a2,720(s5) # 1d2d0 <__wctomb+0x48>
   13880:	2d4aa683          	lw	a3,724(s5)
   13884:	03812503          	lw	a0,56(sp)
   13888:	03c12583          	lw	a1,60(sp)
   1388c:	01012423          	sw	a6,8(sp)
   13890:	01112623          	sw	a7,12(sp)
   13894:	000060ef          	jal	19894 <__adddf3>
   13898:	00812803          	lw	a6,8(sp)
   1389c:	00c12883          	lw	a7,12(sp)
   138a0:	00080613          	mv	a2,a6
   138a4:	00088693          	mv	a3,a7
   138a8:	70c060ef          	jal	19fb4 <__ltdf2>
   138ac:	00812803          	lw	a6,8(sp)
   138b0:	00c12883          	lw	a7,12(sp)
   138b4:	0c055c63          	bgez	a0,1398c <_dtoa_r+0x140c>
   138b8:	fffdca83          	lbu	s5,-1(s11)
   138bc:	04c12b83          	lw	s7,76(sp)
   138c0:	df8ff06f          	j	12eb8 <_dtoa_r+0x938>
   138c4:	00000c13          	li	s8,0
   138c8:	00000a93          	li	s5,0
   138cc:	c8dff06f          	j	13558 <_dtoa_r+0xfd8>
   138d0:	03900793          	li	a5,57
   138d4:	bcfc88e3          	beq	s9,a5,134a4 <_dtoa_r+0xf24>
   138d8:	001c8c93          	addi	s9,s9,1
   138dc:	b85ff06f          	j	13460 <_dtoa_r+0xee0>
   138e0:	000a8993          	mv	s3,s5
   138e4:	000d0a93          	mv	s5,s10
   138e8:	a01ff06f          	j	132e8 <_dtoa_r+0xd68>
   138ec:	416d07b3          	sub	a5,s10,s6
   138f0:	00f12823          	sw	a5,16(sp)
   138f4:	00000793          	li	a5,0
   138f8:	e28ff06f          	j	12f20 <_dtoa_r+0x9a0>
   138fc:	00100b13          	li	s6,1
   13900:	9e1ff06f          	j	132e0 <_dtoa_r+0xd60>
   13904:	05812683          	lw	a3,88(sp)
   13908:	03600793          	li	a5,54
   1390c:	000c0d93          	mv	s11,s8
   13910:	40d787b3          	sub	a5,a5,a3
   13914:	01a12823          	sw	s10,16(sp)
   13918:	e08ff06f          	j	12f20 <_dtoa_r+0x9a0>
   1391c:	c60b04e3          	beqz	s6,13584 <_dtoa_r+0x1004>
   13920:	02812d83          	lw	s11,40(sp)
   13924:	d5b05ce3          	blez	s11,1367c <_dtoa_r+0x10fc>
   13928:	0001d737          	lui	a4,0x1d
   1392c:	2b872603          	lw	a2,696(a4) # 1d2b8 <__wctomb+0x30>
   13930:	2bc72683          	lw	a3,700(a4)
   13934:	01012503          	lw	a0,16(sp)
   13938:	01412583          	lw	a1,20(sp)
   1393c:	fffb8793          	addi	a5,s7,-1
   13940:	04f12623          	sw	a5,76(sp)
   13944:	7fd050ef          	jal	19940 <__muldf3>
   13948:	00a12823          	sw	a0,16(sp)
   1394c:	001a8513          	addi	a0,s5,1
   13950:	00b12a23          	sw	a1,20(sp)
   13954:	6bc060ef          	jal	1a010 <__floatsidf>
   13958:	01012603          	lw	a2,16(sp)
   1395c:	01412683          	lw	a3,20(sp)
   13960:	7e1050ef          	jal	19940 <__muldf3>
   13964:	0001d7b7          	lui	a5,0x1d
   13968:	2c07a603          	lw	a2,704(a5) # 1d2c0 <__wctomb+0x38>
   1396c:	2c47a683          	lw	a3,708(a5)
   13970:	01b12423          	sw	s11,8(sp)
   13974:	721050ef          	jal	19894 <__adddf3>
   13978:	fcc007b7          	lui	a5,0xfcc00
   1397c:	00050813          	mv	a6,a0
   13980:	00b788b3          	add	a7,a5,a1
   13984:	00812303          	lw	t1,8(sp)
   13988:	8b4ff06f          	j	12a3c <_dtoa_r+0x4bc>
   1398c:	03812603          	lw	a2,56(sp)
   13990:	03c12683          	lw	a3,60(sp)
   13994:	2d0aa503          	lw	a0,720(s5)
   13998:	2d4aa583          	lw	a1,724(s5)
   1399c:	01012423          	sw	a6,8(sp)
   139a0:	01112623          	sw	a7,12(sp)
   139a4:	741050ef          	jal	198e4 <__subdf3>
   139a8:	00812803          	lw	a6,8(sp)
   139ac:	00c12883          	lw	a7,12(sp)
   139b0:	00080613          	mv	a2,a6
   139b4:	00088693          	mv	a3,a7
   139b8:	59c060ef          	jal	19f54 <__gtdf2>
   139bc:	03000613          	li	a2,48
   139c0:	00a04663          	bgtz	a0,139cc <_dtoa_r+0x144c>
   139c4:	cb9ff06f          	j	1367c <_dtoa_r+0x10fc>
   139c8:	00068d93          	mv	s11,a3
   139cc:	fffdc703          	lbu	a4,-1(s11)
   139d0:	fffd8693          	addi	a3,s11,-1
   139d4:	fec70ae3          	beq	a4,a2,139c8 <_dtoa_r+0x1448>
   139d8:	a40ff06f          	j	12c18 <_dtoa_r+0x698>
   139dc:	04c12b83          	lw	s7,76(sp)
   139e0:	cd8ff06f          	j	12eb8 <_dtoa_r+0x938>
   139e4:	a6051ee3          	bnez	a0,13460 <_dtoa_r+0xee0>
   139e8:	001cf793          	andi	a5,s9,1
   139ec:	a6078ae3          	beqz	a5,13460 <_dtoa_r+0xee0>
   139f0:	aadff06f          	j	1349c <_dtoa_r+0xf1c>
   139f4:	000a8593          	mv	a1,s5
   139f8:	00000693          	li	a3,0
   139fc:	00a00613          	li	a2,10
   13a00:	00040513          	mv	a0,s0
   13a04:	155010ef          	jal	15358 <__multadd>
   13a08:	02812783          	lw	a5,40(sp)
   13a0c:	00050a93          	mv	s5,a0
   13a10:	00078b13          	mv	s6,a5
   13a14:	eef04863          	bgtz	a5,13104 <_dtoa_r+0xb84>
   13a18:	00200793          	li	a5,2
   13a1c:	0147ce63          	blt	a5,s4,13a38 <_dtoa_r+0x14b8>
   13a20:	02812b03          	lw	s6,40(sp)
   13a24:	ee0ff06f          	j	13104 <_dtoa_r+0xb84>
   13a28:	e8d70c63          	beq	a4,a3,130c0 <_dtoa_r+0xb40>
   13a2c:	03c00713          	li	a4,60
   13a30:	40f707b3          	sub	a5,a4,a5
   13a34:	e78ff06f          	j	130ac <_dtoa_r+0xb2c>
   13a38:	02812b03          	lw	s6,40(sp)
   13a3c:	af1ff06f          	j	1352c <_dtoa_r+0xfac>

00013a40 <__sflush_r>:
   13a40:	00c59783          	lh	a5,12(a1)
   13a44:	fe010113          	addi	sp,sp,-32
   13a48:	00912a23          	sw	s1,20(sp)
   13a4c:	01079713          	slli	a4,a5,0x10
   13a50:	01075713          	srli	a4,a4,0x10
   13a54:	01312623          	sw	s3,12(sp)
   13a58:	00112e23          	sw	ra,28(sp)
   13a5c:	00812c23          	sw	s0,24(sp)
   13a60:	01212823          	sw	s2,16(sp)
   13a64:	00877693          	andi	a3,a4,8
   13a68:	00058493          	mv	s1,a1
   13a6c:	00050993          	mv	s3,a0
   13a70:	10069a63          	bnez	a3,13b84 <__sflush_r+0x144>
   13a74:	00001737          	lui	a4,0x1
   13a78:	80070713          	addi	a4,a4,-2048 # 800 <_ftext-0xf800>
   13a7c:	0045a683          	lw	a3,4(a1)
   13a80:	00e7e7b3          	or	a5,a5,a4
   13a84:	00f59623          	sh	a5,12(a1)
   13a88:	1cd05663          	blez	a3,13c54 <__sflush_r+0x214>
   13a8c:	0284a803          	lw	a6,40(s1)
   13a90:	0c080a63          	beqz	a6,13b64 <__sflush_r+0x124>
   13a94:	01079793          	slli	a5,a5,0x10
   13a98:	0107d793          	srli	a5,a5,0x10
   13a9c:	0009a403          	lw	s0,0(s3)
   13aa0:	01379713          	slli	a4,a5,0x13
   13aa4:	0009a023          	sw	zero,0(s3)
   13aa8:	1a075c63          	bgez	a4,13c60 <__sflush_r+0x220>
   13aac:	0504a603          	lw	a2,80(s1)
   13ab0:	41f65693          	srai	a3,a2,0x1f
   13ab4:	0047f793          	andi	a5,a5,4
   13ab8:	04078263          	beqz	a5,13afc <__sflush_r+0xbc>
   13abc:	0044a783          	lw	a5,4(s1)
   13ac0:	0304a583          	lw	a1,48(s1)
   13ac4:	40f60733          	sub	a4,a2,a5
   13ac8:	41f7d793          	srai	a5,a5,0x1f
   13acc:	00e63533          	sltu	a0,a2,a4
   13ad0:	40f686b3          	sub	a3,a3,a5
   13ad4:	00070613          	mv	a2,a4
   13ad8:	40a686b3          	sub	a3,a3,a0
   13adc:	02058063          	beqz	a1,13afc <__sflush_r+0xbc>
   13ae0:	03c4a783          	lw	a5,60(s1)
   13ae4:	40f70733          	sub	a4,a4,a5
   13ae8:	41f7d793          	srai	a5,a5,0x1f
   13aec:	00e635b3          	sltu	a1,a2,a4
   13af0:	40f686b3          	sub	a3,a3,a5
   13af4:	00070613          	mv	a2,a4
   13af8:	40b686b3          	sub	a3,a3,a1
   13afc:	01c4a583          	lw	a1,28(s1)
   13b00:	00000713          	li	a4,0
   13b04:	00098513          	mv	a0,s3
   13b08:	000800e7          	jalr	a6
   13b0c:	fff00793          	li	a5,-1
   13b10:	0ef50063          	beq	a0,a5,13bf0 <__sflush_r+0x1b0>
   13b14:	00c4d783          	lhu	a5,12(s1)
   13b18:	fffff737          	lui	a4,0xfffff
   13b1c:	7ff70713          	addi	a4,a4,2047 # fffff7ff <_gp+0xfffe1d8f>
   13b20:	00e7f7b3          	and	a5,a5,a4
   13b24:	0104a683          	lw	a3,16(s1)
   13b28:	01079793          	slli	a5,a5,0x10
   13b2c:	4107d793          	srai	a5,a5,0x10
   13b30:	00f49623          	sh	a5,12(s1)
   13b34:	0004a223          	sw	zero,4(s1)
   13b38:	00d4a023          	sw	a3,0(s1)
   13b3c:	01379713          	slli	a4,a5,0x13
   13b40:	10074663          	bltz	a4,13c4c <__sflush_r+0x20c>
   13b44:	0304a583          	lw	a1,48(s1)
   13b48:	0089a023          	sw	s0,0(s3)
   13b4c:	00058c63          	beqz	a1,13b64 <__sflush_r+0x124>
   13b50:	04048793          	addi	a5,s1,64
   13b54:	00f58663          	beq	a1,a5,13b60 <__sflush_r+0x120>
   13b58:	00098513          	mv	a0,s3
   13b5c:	674000ef          	jal	141d0 <_free_r>
   13b60:	0204a823          	sw	zero,48(s1)
   13b64:	00000513          	li	a0,0
   13b68:	01c12083          	lw	ra,28(sp)
   13b6c:	01812403          	lw	s0,24(sp)
   13b70:	01412483          	lw	s1,20(sp)
   13b74:	01012903          	lw	s2,16(sp)
   13b78:	00c12983          	lw	s3,12(sp)
   13b7c:	02010113          	addi	sp,sp,32
   13b80:	00008067          	ret
   13b84:	0105a903          	lw	s2,16(a1)
   13b88:	fc090ee3          	beqz	s2,13b64 <__sflush_r+0x124>
   13b8c:	0005a403          	lw	s0,0(a1)
   13b90:	00377713          	andi	a4,a4,3
   13b94:	0125a023          	sw	s2,0(a1)
   13b98:	41240433          	sub	s0,s0,s2
   13b9c:	00000793          	li	a5,0
   13ba0:	00071463          	bnez	a4,13ba8 <__sflush_r+0x168>
   13ba4:	0145a783          	lw	a5,20(a1)
   13ba8:	00f4a423          	sw	a5,8(s1)
   13bac:	00804863          	bgtz	s0,13bbc <__sflush_r+0x17c>
   13bb0:	fb5ff06f          	j	13b64 <__sflush_r+0x124>
   13bb4:	00a90933          	add	s2,s2,a0
   13bb8:	fa8056e3          	blez	s0,13b64 <__sflush_r+0x124>
   13bbc:	0244a783          	lw	a5,36(s1)
   13bc0:	01c4a583          	lw	a1,28(s1)
   13bc4:	00040693          	mv	a3,s0
   13bc8:	00090613          	mv	a2,s2
   13bcc:	00098513          	mv	a0,s3
   13bd0:	000780e7          	jalr	a5
   13bd4:	40a40433          	sub	s0,s0,a0
   13bd8:	fca04ee3          	bgtz	a0,13bb4 <__sflush_r+0x174>
   13bdc:	00c4d783          	lhu	a5,12(s1)
   13be0:	fff00513          	li	a0,-1
   13be4:	0407e793          	ori	a5,a5,64
   13be8:	00f49623          	sh	a5,12(s1)
   13bec:	f7dff06f          	j	13b68 <__sflush_r+0x128>
   13bf0:	f2a592e3          	bne	a1,a0,13b14 <__sflush_r+0xd4>
   13bf4:	0009a683          	lw	a3,0(s3)
   13bf8:	01d00793          	li	a5,29
   13bfc:	fed7e0e3          	bltu	a5,a3,13bdc <__sflush_r+0x19c>
   13c00:	204007b7          	lui	a5,0x20400
   13c04:	00178793          	addi	a5,a5,1 # 20400001 <_gp+0x203e2591>
   13c08:	00d7d7b3          	srl	a5,a5,a3
   13c0c:	fff7c793          	not	a5,a5
   13c10:	0017f793          	andi	a5,a5,1
   13c14:	fc0794e3          	bnez	a5,13bdc <__sflush_r+0x19c>
   13c18:	00c4d783          	lhu	a5,12(s1)
   13c1c:	fffff737          	lui	a4,0xfffff
   13c20:	7ff70713          	addi	a4,a4,2047 # fffff7ff <_gp+0xfffe1d8f>
   13c24:	00e7f7b3          	and	a5,a5,a4
   13c28:	0104a603          	lw	a2,16(s1)
   13c2c:	01079793          	slli	a5,a5,0x10
   13c30:	4107d793          	srai	a5,a5,0x10
   13c34:	00f49623          	sh	a5,12(s1)
   13c38:	0004a223          	sw	zero,4(s1)
   13c3c:	00c4a023          	sw	a2,0(s1)
   13c40:	01379713          	slli	a4,a5,0x13
   13c44:	f00750e3          	bgez	a4,13b44 <__sflush_r+0x104>
   13c48:	ee069ee3          	bnez	a3,13b44 <__sflush_r+0x104>
   13c4c:	04a4a823          	sw	a0,80(s1)
   13c50:	ef5ff06f          	j	13b44 <__sflush_r+0x104>
   13c54:	03c5a703          	lw	a4,60(a1)
   13c58:	e2e04ae3          	bgtz	a4,13a8c <__sflush_r+0x4c>
   13c5c:	f09ff06f          	j	13b64 <__sflush_r+0x124>
   13c60:	01c4a583          	lw	a1,28(s1)
   13c64:	00000613          	li	a2,0
   13c68:	00000693          	li	a3,0
   13c6c:	00100713          	li	a4,1
   13c70:	00098513          	mv	a0,s3
   13c74:	000800e7          	jalr	a6
   13c78:	fff00793          	li	a5,-1
   13c7c:	00050613          	mv	a2,a0
   13c80:	00058693          	mv	a3,a1
   13c84:	00f50863          	beq	a0,a5,13c94 <__sflush_r+0x254>
   13c88:	00c4d783          	lhu	a5,12(s1)
   13c8c:	0284a803          	lw	a6,40(s1)
   13c90:	e25ff06f          	j	13ab4 <__sflush_r+0x74>
   13c94:	fea59ae3          	bne	a1,a0,13c88 <__sflush_r+0x248>
   13c98:	0009a783          	lw	a5,0(s3)
   13c9c:	fe0786e3          	beqz	a5,13c88 <__sflush_r+0x248>
   13ca0:	01d00713          	li	a4,29
   13ca4:	00e78663          	beq	a5,a4,13cb0 <__sflush_r+0x270>
   13ca8:	01600713          	li	a4,22
   13cac:	f2e798e3          	bne	a5,a4,13bdc <__sflush_r+0x19c>
   13cb0:	0089a023          	sw	s0,0(s3)
   13cb4:	00000513          	li	a0,0
   13cb8:	eb1ff06f          	j	13b68 <__sflush_r+0x128>

00013cbc <_fflush_r>:
   13cbc:	fe010113          	addi	sp,sp,-32
   13cc0:	00812c23          	sw	s0,24(sp)
   13cc4:	00112e23          	sw	ra,28(sp)
   13cc8:	00050413          	mv	s0,a0
   13ccc:	00050663          	beqz	a0,13cd8 <_fflush_r+0x1c>
   13cd0:	03852783          	lw	a5,56(a0)
   13cd4:	02078a63          	beqz	a5,13d08 <_fflush_r+0x4c>
   13cd8:	00c59783          	lh	a5,12(a1)
   13cdc:	00079c63          	bnez	a5,13cf4 <_fflush_r+0x38>
   13ce0:	01c12083          	lw	ra,28(sp)
   13ce4:	00000513          	li	a0,0
   13ce8:	01812403          	lw	s0,24(sp)
   13cec:	02010113          	addi	sp,sp,32
   13cf0:	00008067          	ret
   13cf4:	00040513          	mv	a0,s0
   13cf8:	01c12083          	lw	ra,28(sp)
   13cfc:	01812403          	lw	s0,24(sp)
   13d00:	02010113          	addi	sp,sp,32
   13d04:	d3dff06f          	j	13a40 <__sflush_r>
   13d08:	00b12623          	sw	a1,12(sp)
   13d0c:	370000ef          	jal	1407c <__sinit>
   13d10:	00c12583          	lw	a1,12(sp)
   13d14:	fc5ff06f          	j	13cd8 <_fflush_r+0x1c>

00013d18 <fflush>:
   13d18:	00050593          	mv	a1,a0
   13d1c:	00050663          	beqz	a0,13d28 <fflush+0x10>
   13d20:	8081a503          	lw	a0,-2040(gp) # 1d278 <_impure_ptr>
   13d24:	f99ff06f          	j	13cbc <_fflush_r>
   13d28:	8041a503          	lw	a0,-2044(gp) # 1d274 <_global_impure_ptr>
   13d2c:	000145b7          	lui	a1,0x14
   13d30:	cbc58593          	addi	a1,a1,-836 # 13cbc <_fflush_r>
   13d34:	02d0006f          	j	14560 <_fwalk_reent>

00013d38 <__fp_unlock>:
   13d38:	00000513          	li	a0,0
   13d3c:	00008067          	ret

00013d40 <_cleanup_r>:
   13d40:	000185b7          	lui	a1,0x18
   13d44:	9d058593          	addi	a1,a1,-1584 # 179d0 <_fclose_r>
   13d48:	0190006f          	j	14560 <_fwalk_reent>

00013d4c <__sinit.part.1>:
   13d4c:	fe010113          	addi	sp,sp,-32
   13d50:	000147b7          	lui	a5,0x14
   13d54:	00112e23          	sw	ra,28(sp)
   13d58:	00812c23          	sw	s0,24(sp)
   13d5c:	00912a23          	sw	s1,20(sp)
   13d60:	00452403          	lw	s0,4(a0)
   13d64:	01212823          	sw	s2,16(sp)
   13d68:	01312623          	sw	s3,12(sp)
   13d6c:	01412423          	sw	s4,8(sp)
   13d70:	01512223          	sw	s5,4(sp)
   13d74:	01612023          	sw	s6,0(sp)
   13d78:	d4078793          	addi	a5,a5,-704 # 13d40 <_cleanup_r>
   13d7c:	02f52e23          	sw	a5,60(a0)
   13d80:	2ec50713          	addi	a4,a0,748
   13d84:	00300793          	li	a5,3
   13d88:	2ee52423          	sw	a4,744(a0)
   13d8c:	2ef52223          	sw	a5,740(a0)
   13d90:	2e052023          	sw	zero,736(a0)
   13d94:	00400793          	li	a5,4
   13d98:	00050913          	mv	s2,a0
   13d9c:	00f41623          	sh	a5,12(s0)
   13da0:	00800613          	li	a2,8
   13da4:	00000593          	li	a1,0
   13da8:	00042023          	sw	zero,0(s0)
   13dac:	00042223          	sw	zero,4(s0)
   13db0:	00042423          	sw	zero,8(s0)
   13db4:	06042223          	sw	zero,100(s0)
   13db8:	00041723          	sh	zero,14(s0)
   13dbc:	00042823          	sw	zero,16(s0)
   13dc0:	00042a23          	sw	zero,20(s0)
   13dc4:	00042c23          	sw	zero,24(s0)
   13dc8:	05c40513          	addi	a0,s0,92
   13dcc:	3e0010ef          	jal	151ac <memset>
   13dd0:	00016b37          	lui	s6,0x16
   13dd4:	00892483          	lw	s1,8(s2)
   13dd8:	00016ab7          	lui	s5,0x16
   13ddc:	00016a37          	lui	s4,0x16
   13de0:	000169b7          	lui	s3,0x16
   13de4:	414b0b13          	addi	s6,s6,1044 # 16414 <__sread>
   13de8:	478a8a93          	addi	s5,s5,1144 # 16478 <__swrite>
   13dec:	4fca0a13          	addi	s4,s4,1276 # 164fc <__sseek>
   13df0:	57098993          	addi	s3,s3,1392 # 16570 <__sclose>
   13df4:	03642023          	sw	s6,32(s0)
   13df8:	03542223          	sw	s5,36(s0)
   13dfc:	03442423          	sw	s4,40(s0)
   13e00:	03342623          	sw	s3,44(s0)
   13e04:	00842e23          	sw	s0,28(s0)
   13e08:	00900793          	li	a5,9
   13e0c:	00f49623          	sh	a5,12(s1)
   13e10:	00100793          	li	a5,1
   13e14:	00f49723          	sh	a5,14(s1)
   13e18:	00800613          	li	a2,8
   13e1c:	00000593          	li	a1,0
   13e20:	0004a023          	sw	zero,0(s1)
   13e24:	0004a223          	sw	zero,4(s1)
   13e28:	0004a423          	sw	zero,8(s1)
   13e2c:	0604a223          	sw	zero,100(s1)
   13e30:	0004a823          	sw	zero,16(s1)
   13e34:	0004aa23          	sw	zero,20(s1)
   13e38:	0004ac23          	sw	zero,24(s1)
   13e3c:	05c48513          	addi	a0,s1,92
   13e40:	36c010ef          	jal	151ac <memset>
   13e44:	00c92403          	lw	s0,12(s2)
   13e48:	01200793          	li	a5,18
   13e4c:	0364a023          	sw	s6,32(s1)
   13e50:	0354a223          	sw	s5,36(s1)
   13e54:	0344a423          	sw	s4,40(s1)
   13e58:	0334a623          	sw	s3,44(s1)
   13e5c:	0094ae23          	sw	s1,28(s1)
   13e60:	00f41623          	sh	a5,12(s0)
   13e64:	00200793          	li	a5,2
   13e68:	00f41723          	sh	a5,14(s0)
   13e6c:	00042023          	sw	zero,0(s0)
   13e70:	00042223          	sw	zero,4(s0)
   13e74:	00042423          	sw	zero,8(s0)
   13e78:	06042223          	sw	zero,100(s0)
   13e7c:	00042823          	sw	zero,16(s0)
   13e80:	00042a23          	sw	zero,20(s0)
   13e84:	00042c23          	sw	zero,24(s0)
   13e88:	05c40513          	addi	a0,s0,92
   13e8c:	00800613          	li	a2,8
   13e90:	00000593          	li	a1,0
   13e94:	318010ef          	jal	151ac <memset>
   13e98:	01c12083          	lw	ra,28(sp)
   13e9c:	03642023          	sw	s6,32(s0)
   13ea0:	03542223          	sw	s5,36(s0)
   13ea4:	03442423          	sw	s4,40(s0)
   13ea8:	03342623          	sw	s3,44(s0)
   13eac:	00842e23          	sw	s0,28(s0)
   13eb0:	00100793          	li	a5,1
   13eb4:	02f92c23          	sw	a5,56(s2)
   13eb8:	01812403          	lw	s0,24(sp)
   13ebc:	01412483          	lw	s1,20(sp)
   13ec0:	01012903          	lw	s2,16(sp)
   13ec4:	00c12983          	lw	s3,12(sp)
   13ec8:	00812a03          	lw	s4,8(sp)
   13ecc:	00412a83          	lw	s5,4(sp)
   13ed0:	00012b03          	lw	s6,0(sp)
   13ed4:	02010113          	addi	sp,sp,32
   13ed8:	00008067          	ret

00013edc <__fp_lock>:
   13edc:	00000513          	li	a0,0
   13ee0:	00008067          	ret

00013ee4 <__sfmoreglue>:
   13ee4:	ff010113          	addi	sp,sp,-16
   13ee8:	01212023          	sw	s2,0(sp)
   13eec:	00058913          	mv	s2,a1
   13ef0:	00812423          	sw	s0,8(sp)
   13ef4:	06800593          	li	a1,104
   13ef8:	00050413          	mv	s0,a0
   13efc:	fff90513          	addi	a0,s2,-1
   13f00:	00112623          	sw	ra,12(sp)
   13f04:	00912223          	sw	s1,4(sp)
   13f08:	3d4060ef          	jal	1a2dc <__mulsi3>
   13f0c:	07450593          	addi	a1,a0,116
   13f10:	00050493          	mv	s1,a0
   13f14:	00040513          	mv	a0,s0
   13f18:	169000ef          	jal	14880 <_malloc_r>
   13f1c:	00050413          	mv	s0,a0
   13f20:	02050063          	beqz	a0,13f40 <__sfmoreglue+0x5c>
   13f24:	00c50513          	addi	a0,a0,12
   13f28:	00042023          	sw	zero,0(s0)
   13f2c:	01242223          	sw	s2,4(s0)
   13f30:	00a42423          	sw	a0,8(s0)
   13f34:	06848613          	addi	a2,s1,104
   13f38:	00000593          	li	a1,0
   13f3c:	270010ef          	jal	151ac <memset>
   13f40:	00c12083          	lw	ra,12(sp)
   13f44:	00040513          	mv	a0,s0
   13f48:	00412483          	lw	s1,4(sp)
   13f4c:	00812403          	lw	s0,8(sp)
   13f50:	00012903          	lw	s2,0(sp)
   13f54:	01010113          	addi	sp,sp,16
   13f58:	00008067          	ret

00013f5c <__sfp>:
   13f5c:	fe010113          	addi	sp,sp,-32
   13f60:	01212823          	sw	s2,16(sp)
   13f64:	8041a903          	lw	s2,-2044(gp) # 1d274 <_global_impure_ptr>
   13f68:	01312623          	sw	s3,12(sp)
   13f6c:	00112e23          	sw	ra,28(sp)
   13f70:	03892783          	lw	a5,56(s2)
   13f74:	00812c23          	sw	s0,24(sp)
   13f78:	00912a23          	sw	s1,20(sp)
   13f7c:	01412423          	sw	s4,8(sp)
   13f80:	00050993          	mv	s3,a0
   13f84:	0a078c63          	beqz	a5,1403c <__sfp+0xe0>
   13f88:	2e090913          	addi	s2,s2,736
   13f8c:	fff00493          	li	s1,-1
   13f90:	00400a13          	li	s4,4
   13f94:	00492783          	lw	a5,4(s2)
   13f98:	00892403          	lw	s0,8(s2)
   13f9c:	fff78793          	addi	a5,a5,-1
   13fa0:	0007da63          	bgez	a5,13fb4 <__sfp+0x58>
   13fa4:	0880006f          	j	1402c <__sfp+0xd0>
   13fa8:	fff78793          	addi	a5,a5,-1
   13fac:	06840413          	addi	s0,s0,104
   13fb0:	06978e63          	beq	a5,s1,1402c <__sfp+0xd0>
   13fb4:	00c41703          	lh	a4,12(s0)
   13fb8:	fe0718e3          	bnez	a4,13fa8 <__sfp+0x4c>
   13fbc:	fff00793          	li	a5,-1
   13fc0:	00f41723          	sh	a5,14(s0)
   13fc4:	00100793          	li	a5,1
   13fc8:	00f41623          	sh	a5,12(s0)
   13fcc:	06042223          	sw	zero,100(s0)
   13fd0:	00042023          	sw	zero,0(s0)
   13fd4:	00042423          	sw	zero,8(s0)
   13fd8:	00042223          	sw	zero,4(s0)
   13fdc:	00042823          	sw	zero,16(s0)
   13fe0:	00042a23          	sw	zero,20(s0)
   13fe4:	00042c23          	sw	zero,24(s0)
   13fe8:	00800613          	li	a2,8
   13fec:	00000593          	li	a1,0
   13ff0:	05c40513          	addi	a0,s0,92
   13ff4:	1b8010ef          	jal	151ac <memset>
   13ff8:	02042823          	sw	zero,48(s0)
   13ffc:	02042a23          	sw	zero,52(s0)
   14000:	04042223          	sw	zero,68(s0)
   14004:	04042423          	sw	zero,72(s0)
   14008:	01c12083          	lw	ra,28(sp)
   1400c:	00040513          	mv	a0,s0
   14010:	01412483          	lw	s1,20(sp)
   14014:	01812403          	lw	s0,24(sp)
   14018:	01012903          	lw	s2,16(sp)
   1401c:	00c12983          	lw	s3,12(sp)
   14020:	00812a03          	lw	s4,8(sp)
   14024:	02010113          	addi	sp,sp,32
   14028:	00008067          	ret
   1402c:	00092503          	lw	a0,0(s2)
   14030:	00050c63          	beqz	a0,14048 <__sfp+0xec>
   14034:	00050913          	mv	s2,a0
   14038:	f5dff06f          	j	13f94 <__sfp+0x38>
   1403c:	00090513          	mv	a0,s2
   14040:	d0dff0ef          	jal	13d4c <__sinit.part.1>
   14044:	f45ff06f          	j	13f88 <__sfp+0x2c>
   14048:	000a0593          	mv	a1,s4
   1404c:	00098513          	mv	a0,s3
   14050:	e95ff0ef          	jal	13ee4 <__sfmoreglue>
   14054:	00a92023          	sw	a0,0(s2)
   14058:	fc051ee3          	bnez	a0,14034 <__sfp+0xd8>
   1405c:	00c00793          	li	a5,12
   14060:	00f9a023          	sw	a5,0(s3)
   14064:	00000413          	li	s0,0
   14068:	fa1ff06f          	j	14008 <__sfp+0xac>

0001406c <_cleanup>:
   1406c:	8041a503          	lw	a0,-2044(gp) # 1d274 <_global_impure_ptr>
   14070:	000185b7          	lui	a1,0x18
   14074:	9d058593          	addi	a1,a1,-1584 # 179d0 <_fclose_r>
   14078:	4e80006f          	j	14560 <_fwalk_reent>

0001407c <__sinit>:
   1407c:	03852783          	lw	a5,56(a0)
   14080:	00078463          	beqz	a5,14088 <__sinit+0xc>
   14084:	00008067          	ret
   14088:	cc5ff06f          	j	13d4c <__sinit.part.1>

0001408c <__sfp_lock_acquire>:
   1408c:	00008067          	ret

00014090 <__sfp_lock_release>:
   14090:	00008067          	ret

00014094 <__sinit_lock_acquire>:
   14094:	00008067          	ret

00014098 <__sinit_lock_release>:
   14098:	00008067          	ret

0001409c <__fp_lock_all>:
   1409c:	8081a503          	lw	a0,-2040(gp) # 1d278 <_impure_ptr>
   140a0:	000145b7          	lui	a1,0x14
   140a4:	edc58593          	addi	a1,a1,-292 # 13edc <__fp_lock>
   140a8:	4080006f          	j	144b0 <_fwalk>

000140ac <__fp_unlock_all>:
   140ac:	8081a503          	lw	a0,-2040(gp) # 1d278 <_impure_ptr>
   140b0:	000145b7          	lui	a1,0x14
   140b4:	d3858593          	addi	a1,a1,-712 # 13d38 <__fp_unlock>
   140b8:	3f80006f          	j	144b0 <_fwalk>

000140bc <_malloc_trim_r>:
   140bc:	fe010113          	addi	sp,sp,-32
   140c0:	01212823          	sw	s2,16(sp)
   140c4:	0001d937          	lui	s2,0x1d
   140c8:	00812c23          	sw	s0,24(sp)
   140cc:	00912a23          	sw	s1,20(sp)
   140d0:	01312623          	sw	s3,12(sp)
   140d4:	01412423          	sw	s4,8(sp)
   140d8:	00112e23          	sw	ra,28(sp)
   140dc:	00058a13          	mv	s4,a1
   140e0:	00050993          	mv	s3,a0
   140e4:	e6090913          	addi	s2,s2,-416 # 1ce60 <__malloc_av_>
   140e8:	1a0010ef          	jal	15288 <__malloc_lock>
   140ec:	00892703          	lw	a4,8(s2)
   140f0:	000017b7          	lui	a5,0x1
   140f4:	fef78413          	addi	s0,a5,-17 # fef <_ftext-0xf011>
   140f8:	00472483          	lw	s1,4(a4)
   140fc:	41440433          	sub	s0,s0,s4
   14100:	ffc4f493          	andi	s1,s1,-4
   14104:	00940433          	add	s0,s0,s1
   14108:	00c45413          	srli	s0,s0,0xc
   1410c:	fff40413          	addi	s0,s0,-1
   14110:	00c41413          	slli	s0,s0,0xc
   14114:	00f44e63          	blt	s0,a5,14130 <_malloc_trim_r+0x74>
   14118:	00000593          	li	a1,0
   1411c:	00098513          	mv	a0,s3
   14120:	224020ef          	jal	16344 <_sbrk_r>
   14124:	00892783          	lw	a5,8(s2)
   14128:	009787b3          	add	a5,a5,s1
   1412c:	02f50863          	beq	a0,a5,1415c <_malloc_trim_r+0xa0>
   14130:	00098513          	mv	a0,s3
   14134:	158010ef          	jal	1528c <__malloc_unlock>
   14138:	00000513          	li	a0,0
   1413c:	01c12083          	lw	ra,28(sp)
   14140:	01812403          	lw	s0,24(sp)
   14144:	01412483          	lw	s1,20(sp)
   14148:	01012903          	lw	s2,16(sp)
   1414c:	00c12983          	lw	s3,12(sp)
   14150:	00812a03          	lw	s4,8(sp)
   14154:	02010113          	addi	sp,sp,32
   14158:	00008067          	ret
   1415c:	408005b3          	neg	a1,s0
   14160:	00098513          	mv	a0,s3
   14164:	1e0020ef          	jal	16344 <_sbrk_r>
   14168:	fff00793          	li	a5,-1
   1416c:	02f50863          	beq	a0,a5,1419c <_malloc_trim_r+0xe0>
   14170:	8b81a783          	lw	a5,-1864(gp) # 1d328 <__malloc_current_mallinfo>
   14174:	00892683          	lw	a3,8(s2)
   14178:	408484b3          	sub	s1,s1,s0
   1417c:	0014e493          	ori	s1,s1,1
   14180:	40878433          	sub	s0,a5,s0
   14184:	00098513          	mv	a0,s3
   14188:	0096a223          	sw	s1,4(a3)
   1418c:	8a81ac23          	sw	s0,-1864(gp) # 1d328 <__malloc_current_mallinfo>
   14190:	0fc010ef          	jal	1528c <__malloc_unlock>
   14194:	00100513          	li	a0,1
   14198:	fa5ff06f          	j	1413c <_malloc_trim_r+0x80>
   1419c:	00000593          	li	a1,0
   141a0:	00098513          	mv	a0,s3
   141a4:	1a0020ef          	jal	16344 <_sbrk_r>
   141a8:	00892703          	lw	a4,8(s2)
   141ac:	00f00693          	li	a3,15
   141b0:	40e507b3          	sub	a5,a0,a4
   141b4:	f6f6dee3          	ble	a5,a3,14130 <_malloc_trim_r+0x74>
   141b8:	8101a683          	lw	a3,-2032(gp) # 1d280 <__malloc_sbrk_base>
   141bc:	0017e793          	ori	a5,a5,1
   141c0:	00f72223          	sw	a5,4(a4)
   141c4:	40d50533          	sub	a0,a0,a3
   141c8:	8aa1ac23          	sw	a0,-1864(gp) # 1d328 <__malloc_current_mallinfo>
   141cc:	f65ff06f          	j	14130 <_malloc_trim_r+0x74>

000141d0 <_free_r>:
   141d0:	0e058e63          	beqz	a1,142cc <_free_r+0xfc>
   141d4:	ff010113          	addi	sp,sp,-16
   141d8:	00812423          	sw	s0,8(sp)
   141dc:	00912223          	sw	s1,4(sp)
   141e0:	00058413          	mv	s0,a1
   141e4:	00050493          	mv	s1,a0
   141e8:	00112623          	sw	ra,12(sp)
   141ec:	09c010ef          	jal	15288 <__malloc_lock>
   141f0:	ffc42503          	lw	a0,-4(s0)
   141f4:	ff840693          	addi	a3,s0,-8
   141f8:	0001d5b7          	lui	a1,0x1d
   141fc:	ffe57793          	andi	a5,a0,-2
   14200:	00f68633          	add	a2,a3,a5
   14204:	e6058593          	addi	a1,a1,-416 # 1ce60 <__malloc_av_>
   14208:	00462703          	lw	a4,4(a2)
   1420c:	0085a803          	lw	a6,8(a1)
   14210:	ffc77713          	andi	a4,a4,-4
   14214:	15060463          	beq	a2,a6,1435c <_free_r+0x18c>
   14218:	00e62223          	sw	a4,4(a2)
   1421c:	00157513          	andi	a0,a0,1
   14220:	02051663          	bnez	a0,1424c <_free_r+0x7c>
   14224:	ff842883          	lw	a7,-8(s0)
   14228:	0001d537          	lui	a0,0x1d
   1422c:	e6850513          	addi	a0,a0,-408 # 1ce68 <__malloc_av_+0x8>
   14230:	411686b3          	sub	a3,a3,a7
   14234:	0086a803          	lw	a6,8(a3)
   14238:	011787b3          	add	a5,a5,a7
   1423c:	16a80a63          	beq	a6,a0,143b0 <_free_r+0x1e0>
   14240:	00c6a503          	lw	a0,12(a3)
   14244:	00a82623          	sw	a0,12(a6)
   14248:	01052423          	sw	a6,8(a0)
   1424c:	00e60533          	add	a0,a2,a4
   14250:	00452503          	lw	a0,4(a0)
   14254:	00157513          	andi	a0,a0,1
   14258:	0c050863          	beqz	a0,14328 <_free_r+0x158>
   1425c:	0017e713          	ori	a4,a5,1
   14260:	00e6a223          	sw	a4,4(a3)
   14264:	00f68733          	add	a4,a3,a5
   14268:	00f72023          	sw	a5,0(a4)
   1426c:	1ff00713          	li	a4,511
   14270:	06f76063          	bltu	a4,a5,142d0 <_free_r+0x100>
   14274:	0037d793          	srli	a5,a5,0x3
   14278:	00178713          	addi	a4,a5,1
   1427c:	00371713          	slli	a4,a4,0x3
   14280:	0045a803          	lw	a6,4(a1)
   14284:	00e58733          	add	a4,a1,a4
   14288:	00072503          	lw	a0,0(a4)
   1428c:	4027d613          	srai	a2,a5,0x2
   14290:	00100793          	li	a5,1
   14294:	00c797b3          	sll	a5,a5,a2
   14298:	0107e7b3          	or	a5,a5,a6
   1429c:	ff870613          	addi	a2,a4,-8
   142a0:	00c6a623          	sw	a2,12(a3)
   142a4:	00a6a423          	sw	a0,8(a3)
   142a8:	00f5a223          	sw	a5,4(a1)
   142ac:	00d72023          	sw	a3,0(a4)
   142b0:	00d52623          	sw	a3,12(a0)
   142b4:	00048513          	mv	a0,s1
   142b8:	00c12083          	lw	ra,12(sp)
   142bc:	00812403          	lw	s0,8(sp)
   142c0:	00412483          	lw	s1,4(sp)
   142c4:	01010113          	addi	sp,sp,16
   142c8:	7c50006f          	j	1528c <__malloc_unlock>
   142cc:	00008067          	ret
   142d0:	0097d713          	srli	a4,a5,0x9
   142d4:	00400613          	li	a2,4
   142d8:	10e66863          	bltu	a2,a4,143e8 <_free_r+0x218>
   142dc:	0067d713          	srli	a4,a5,0x6
   142e0:	03970513          	addi	a0,a4,57
   142e4:	03870613          	addi	a2,a4,56
   142e8:	00351513          	slli	a0,a0,0x3
   142ec:	00a58533          	add	a0,a1,a0
   142f0:	00052703          	lw	a4,0(a0)
   142f4:	ff850513          	addi	a0,a0,-8
   142f8:	10e50463          	beq	a0,a4,14400 <_free_r+0x230>
   142fc:	00472603          	lw	a2,4(a4)
   14300:	ffc67613          	andi	a2,a2,-4
   14304:	0ac7f263          	bleu	a2,a5,143a8 <_free_r+0x1d8>
   14308:	00872703          	lw	a4,8(a4)
   1430c:	fee518e3          	bne	a0,a4,142fc <_free_r+0x12c>
   14310:	00c52783          	lw	a5,12(a0)
   14314:	00f6a623          	sw	a5,12(a3)
   14318:	00a6a423          	sw	a0,8(a3)
   1431c:	00d7a423          	sw	a3,8(a5)
   14320:	00d52623          	sw	a3,12(a0)
   14324:	f91ff06f          	j	142b4 <_free_r+0xe4>
   14328:	00862503          	lw	a0,8(a2)
   1432c:	0001d837          	lui	a6,0x1d
   14330:	e6880813          	addi	a6,a6,-408 # 1ce68 <__malloc_av_+0x8>
   14334:	00e787b3          	add	a5,a5,a4
   14338:	0f050463          	beq	a0,a6,14420 <_free_r+0x250>
   1433c:	00c62803          	lw	a6,12(a2)
   14340:	0017e613          	ori	a2,a5,1
   14344:	00f68733          	add	a4,a3,a5
   14348:	01052623          	sw	a6,12(a0)
   1434c:	00a82423          	sw	a0,8(a6)
   14350:	00c6a223          	sw	a2,4(a3)
   14354:	00f72023          	sw	a5,0(a4)
   14358:	f15ff06f          	j	1426c <_free_r+0x9c>
   1435c:	00157513          	andi	a0,a0,1
   14360:	00e787b3          	add	a5,a5,a4
   14364:	02051063          	bnez	a0,14384 <_free_r+0x1b4>
   14368:	ff842503          	lw	a0,-8(s0)
   1436c:	40a686b3          	sub	a3,a3,a0
   14370:	00c6a703          	lw	a4,12(a3)
   14374:	0086a603          	lw	a2,8(a3)
   14378:	00a787b3          	add	a5,a5,a0
   1437c:	00e62623          	sw	a4,12(a2)
   14380:	00c72423          	sw	a2,8(a4)
   14384:	0017e613          	ori	a2,a5,1
   14388:	8141a703          	lw	a4,-2028(gp) # 1d284 <__malloc_trim_threshold>
   1438c:	00c6a223          	sw	a2,4(a3)
   14390:	00d5a423          	sw	a3,8(a1)
   14394:	f2e7e0e3          	bltu	a5,a4,142b4 <_free_r+0xe4>
   14398:	88c1a583          	lw	a1,-1908(gp) # 1d2fc <__malloc_top_pad>
   1439c:	00048513          	mv	a0,s1
   143a0:	d1dff0ef          	jal	140bc <_malloc_trim_r>
   143a4:	f11ff06f          	j	142b4 <_free_r+0xe4>
   143a8:	00070513          	mv	a0,a4
   143ac:	f65ff06f          	j	14310 <_free_r+0x140>
   143b0:	00e605b3          	add	a1,a2,a4
   143b4:	0045a583          	lw	a1,4(a1)
   143b8:	0015f593          	andi	a1,a1,1
   143bc:	0e059263          	bnez	a1,144a0 <_free_r+0x2d0>
   143c0:	00862583          	lw	a1,8(a2)
   143c4:	00c62603          	lw	a2,12(a2)
   143c8:	00f707b3          	add	a5,a4,a5
   143cc:	0017e713          	ori	a4,a5,1
   143d0:	00c5a623          	sw	a2,12(a1)
   143d4:	00b62423          	sw	a1,8(a2)
   143d8:	00e6a223          	sw	a4,4(a3)
   143dc:	00f686b3          	add	a3,a3,a5
   143e0:	00f6a023          	sw	a5,0(a3)
   143e4:	ed1ff06f          	j	142b4 <_free_r+0xe4>
   143e8:	01400613          	li	a2,20
   143ec:	04e66c63          	bltu	a2,a4,14444 <_free_r+0x274>
   143f0:	05c70513          	addi	a0,a4,92
   143f4:	05b70613          	addi	a2,a4,91
   143f8:	00351513          	slli	a0,a0,0x3
   143fc:	ef1ff06f          	j	142ec <_free_r+0x11c>
   14400:	0045a803          	lw	a6,4(a1)
   14404:	40265713          	srai	a4,a2,0x2
   14408:	00100793          	li	a5,1
   1440c:	00e797b3          	sll	a5,a5,a4
   14410:	0107e7b3          	or	a5,a5,a6
   14414:	00f5a223          	sw	a5,4(a1)
   14418:	00050793          	mv	a5,a0
   1441c:	ef9ff06f          	j	14314 <_free_r+0x144>
   14420:	00d5aa23          	sw	a3,20(a1)
   14424:	00d5a823          	sw	a3,16(a1)
   14428:	0017e713          	ori	a4,a5,1
   1442c:	00a6a623          	sw	a0,12(a3)
   14430:	00a6a423          	sw	a0,8(a3)
   14434:	00e6a223          	sw	a4,4(a3)
   14438:	00f686b3          	add	a3,a3,a5
   1443c:	00f6a023          	sw	a5,0(a3)
   14440:	e75ff06f          	j	142b4 <_free_r+0xe4>
   14444:	05400613          	li	a2,84
   14448:	00e66c63          	bltu	a2,a4,14460 <_free_r+0x290>
   1444c:	00c7d713          	srli	a4,a5,0xc
   14450:	06f70513          	addi	a0,a4,111
   14454:	06e70613          	addi	a2,a4,110
   14458:	00351513          	slli	a0,a0,0x3
   1445c:	e91ff06f          	j	142ec <_free_r+0x11c>
   14460:	15400613          	li	a2,340
   14464:	00e66c63          	bltu	a2,a4,1447c <_free_r+0x2ac>
   14468:	00f7d713          	srli	a4,a5,0xf
   1446c:	07870513          	addi	a0,a4,120
   14470:	07770613          	addi	a2,a4,119
   14474:	00351513          	slli	a0,a0,0x3
   14478:	e75ff06f          	j	142ec <_free_r+0x11c>
   1447c:	55400813          	li	a6,1364
   14480:	3f800513          	li	a0,1016
   14484:	07e00613          	li	a2,126
   14488:	e6e862e3          	bltu	a6,a4,142ec <_free_r+0x11c>
   1448c:	0127d713          	srli	a4,a5,0x12
   14490:	07d70513          	addi	a0,a4,125
   14494:	07c70613          	addi	a2,a4,124
   14498:	00351513          	slli	a0,a0,0x3
   1449c:	e51ff06f          	j	142ec <_free_r+0x11c>
   144a0:	0017e713          	ori	a4,a5,1
   144a4:	00e6a223          	sw	a4,4(a3)
   144a8:	00f62023          	sw	a5,0(a2)
   144ac:	e09ff06f          	j	142b4 <_free_r+0xe4>

000144b0 <_fwalk>:
   144b0:	fe010113          	addi	sp,sp,-32
   144b4:	01512223          	sw	s5,4(sp)
   144b8:	00112e23          	sw	ra,28(sp)
   144bc:	00812c23          	sw	s0,24(sp)
   144c0:	00912a23          	sw	s1,20(sp)
   144c4:	01212823          	sw	s2,16(sp)
   144c8:	01312623          	sw	s3,12(sp)
   144cc:	01412423          	sw	s4,8(sp)
   144d0:	01612023          	sw	s6,0(sp)
   144d4:	2e050a93          	addi	s5,a0,736
   144d8:	080a8063          	beqz	s5,14558 <_fwalk+0xa8>
   144dc:	00058b13          	mv	s6,a1
   144e0:	00000a13          	li	s4,0
   144e4:	00100993          	li	s3,1
   144e8:	fff00913          	li	s2,-1
   144ec:	004aa483          	lw	s1,4(s5)
   144f0:	008aa403          	lw	s0,8(s5)
   144f4:	fff48493          	addi	s1,s1,-1
   144f8:	0204c663          	bltz	s1,14524 <_fwalk+0x74>
   144fc:	00c45783          	lhu	a5,12(s0)
   14500:	fff48493          	addi	s1,s1,-1
   14504:	00f9fc63          	bleu	a5,s3,1451c <_fwalk+0x6c>
   14508:	00e41783          	lh	a5,14(s0)
   1450c:	00040513          	mv	a0,s0
   14510:	01278663          	beq	a5,s2,1451c <_fwalk+0x6c>
   14514:	000b00e7          	jalr	s6
   14518:	00aa6a33          	or	s4,s4,a0
   1451c:	06840413          	addi	s0,s0,104
   14520:	fd249ee3          	bne	s1,s2,144fc <_fwalk+0x4c>
   14524:	000aaa83          	lw	s5,0(s5)
   14528:	fc0a92e3          	bnez	s5,144ec <_fwalk+0x3c>
   1452c:	01c12083          	lw	ra,28(sp)
   14530:	000a0513          	mv	a0,s4
   14534:	01812403          	lw	s0,24(sp)
   14538:	01412483          	lw	s1,20(sp)
   1453c:	01012903          	lw	s2,16(sp)
   14540:	00c12983          	lw	s3,12(sp)
   14544:	00812a03          	lw	s4,8(sp)
   14548:	00412a83          	lw	s5,4(sp)
   1454c:	00012b03          	lw	s6,0(sp)
   14550:	02010113          	addi	sp,sp,32
   14554:	00008067          	ret
   14558:	00000a13          	li	s4,0
   1455c:	fd1ff06f          	j	1452c <_fwalk+0x7c>

00014560 <_fwalk_reent>:
   14560:	fd010113          	addi	sp,sp,-48
   14564:	01612823          	sw	s6,16(sp)
   14568:	02112623          	sw	ra,44(sp)
   1456c:	02812423          	sw	s0,40(sp)
   14570:	02912223          	sw	s1,36(sp)
   14574:	03212023          	sw	s2,32(sp)
   14578:	01312e23          	sw	s3,28(sp)
   1457c:	01412c23          	sw	s4,24(sp)
   14580:	01512a23          	sw	s5,20(sp)
   14584:	01712623          	sw	s7,12(sp)
   14588:	2e050b13          	addi	s6,a0,736
   1458c:	080b0663          	beqz	s6,14618 <_fwalk_reent+0xb8>
   14590:	00058b93          	mv	s7,a1
   14594:	00050a93          	mv	s5,a0
   14598:	00000a13          	li	s4,0
   1459c:	00100993          	li	s3,1
   145a0:	fff00913          	li	s2,-1
   145a4:	004b2483          	lw	s1,4(s6)
   145a8:	008b2403          	lw	s0,8(s6)
   145ac:	fff48493          	addi	s1,s1,-1
   145b0:	0204c863          	bltz	s1,145e0 <_fwalk_reent+0x80>
   145b4:	00c45783          	lhu	a5,12(s0)
   145b8:	fff48493          	addi	s1,s1,-1
   145bc:	00f9fe63          	bleu	a5,s3,145d8 <_fwalk_reent+0x78>
   145c0:	00e41783          	lh	a5,14(s0)
   145c4:	00040593          	mv	a1,s0
   145c8:	000a8513          	mv	a0,s5
   145cc:	01278663          	beq	a5,s2,145d8 <_fwalk_reent+0x78>
   145d0:	000b80e7          	jalr	s7
   145d4:	00aa6a33          	or	s4,s4,a0
   145d8:	06840413          	addi	s0,s0,104
   145dc:	fd249ce3          	bne	s1,s2,145b4 <_fwalk_reent+0x54>
   145e0:	000b2b03          	lw	s6,0(s6)
   145e4:	fc0b10e3          	bnez	s6,145a4 <_fwalk_reent+0x44>
   145e8:	02c12083          	lw	ra,44(sp)
   145ec:	000a0513          	mv	a0,s4
   145f0:	02812403          	lw	s0,40(sp)
   145f4:	02412483          	lw	s1,36(sp)
   145f8:	02012903          	lw	s2,32(sp)
   145fc:	01c12983          	lw	s3,28(sp)
   14600:	01812a03          	lw	s4,24(sp)
   14604:	01412a83          	lw	s5,20(sp)
   14608:	01012b03          	lw	s6,16(sp)
   1460c:	00c12b83          	lw	s7,12(sp)
   14610:	03010113          	addi	sp,sp,48
   14614:	00008067          	ret
   14618:	00000a13          	li	s4,0
   1461c:	fcdff06f          	j	145e8 <_fwalk_reent+0x88>

00014620 <_setlocale_r>:
   14620:	ff010113          	addi	sp,sp,-16
   14624:	00912223          	sw	s1,4(sp)
   14628:	00112623          	sw	ra,12(sp)
   1462c:	00812423          	sw	s0,8(sp)
   14630:	0001b4b7          	lui	s1,0x1b
   14634:	02060063          	beqz	a2,14654 <_setlocale_r+0x34>
   14638:	0001b5b7          	lui	a1,0x1b
   1463c:	66058593          	addi	a1,a1,1632 # 1b660 <__clz_tab+0x158>
   14640:	00060513          	mv	a0,a2
   14644:	00060413          	mv	s0,a2
   14648:	731010ef          	jal	16578 <strcmp>
   1464c:	0001b4b7          	lui	s1,0x1b
   14650:	00051e63          	bnez	a0,1466c <_setlocale_r+0x4c>
   14654:	60848513          	addi	a0,s1,1544 # 1b608 <__clz_tab+0x100>
   14658:	00c12083          	lw	ra,12(sp)
   1465c:	00812403          	lw	s0,8(sp)
   14660:	00412483          	lw	s1,4(sp)
   14664:	01010113          	addi	sp,sp,16
   14668:	00008067          	ret
   1466c:	60848593          	addi	a1,s1,1544
   14670:	00040513          	mv	a0,s0
   14674:	705010ef          	jal	16578 <strcmp>
   14678:	fc050ee3          	beqz	a0,14654 <_setlocale_r+0x34>
   1467c:	0001b5b7          	lui	a1,0x1b
   14680:	62c58593          	addi	a1,a1,1580 # 1b62c <__clz_tab+0x124>
   14684:	00040513          	mv	a0,s0
   14688:	6f1010ef          	jal	16578 <strcmp>
   1468c:	fc0504e3          	beqz	a0,14654 <_setlocale_r+0x34>
   14690:	00000513          	li	a0,0
   14694:	fc5ff06f          	j	14658 <_setlocale_r+0x38>

00014698 <__locale_charset>:
   14698:	0001d537          	lui	a0,0x1d
   1469c:	de850513          	addi	a0,a0,-536 # 1cde8 <lc_ctype_charset>
   146a0:	00008067          	ret

000146a4 <__locale_mb_cur_max>:
   146a4:	80c1a503          	lw	a0,-2036(gp) # 1d27c <__mb_cur_max>
   146a8:	00008067          	ret

000146ac <__locale_msgcharset>:
   146ac:	0001d537          	lui	a0,0x1d
   146b0:	e0850513          	addi	a0,a0,-504 # 1ce08 <lc_message_charset>
   146b4:	00008067          	ret

000146b8 <__locale_cjk_lang>:
   146b8:	00000513          	li	a0,0
   146bc:	00008067          	ret

000146c0 <_localeconv_r>:
   146c0:	0001d537          	lui	a0,0x1d
   146c4:	e2850513          	addi	a0,a0,-472 # 1ce28 <lconv>
   146c8:	00008067          	ret

000146cc <setlocale>:
   146cc:	00058613          	mv	a2,a1
   146d0:	00050593          	mv	a1,a0
   146d4:	8081a503          	lw	a0,-2040(gp) # 1d278 <_impure_ptr>
   146d8:	f49ff06f          	j	14620 <_setlocale_r>

000146dc <localeconv>:
   146dc:	0001d537          	lui	a0,0x1d
   146e0:	e2850513          	addi	a0,a0,-472 # 1ce28 <lconv>
   146e4:	00008067          	ret

000146e8 <__smakebuf_r>:
   146e8:	00c59783          	lh	a5,12(a1)
   146ec:	01079713          	slli	a4,a5,0x10
   146f0:	01075713          	srli	a4,a4,0x10
   146f4:	00277693          	andi	a3,a4,2
   146f8:	0e069a63          	bnez	a3,147ec <__smakebuf_r+0x104>
   146fc:	f7010113          	addi	sp,sp,-144
   14700:	08812423          	sw	s0,136(sp)
   14704:	00058413          	mv	s0,a1
   14708:	00e59583          	lh	a1,14(a1)
   1470c:	08912223          	sw	s1,132(sp)
   14710:	08112623          	sw	ra,140(sp)
   14714:	09212023          	sw	s2,128(sp)
   14718:	07312e23          	sw	s3,124(sp)
   1471c:	00050493          	mv	s1,a0
   14720:	0405cc63          	bltz	a1,14778 <__smakebuf_r+0x90>
   14724:	00810613          	addi	a2,sp,8
   14728:	5a4030ef          	jal	17ccc <_fstat_r>
   1472c:	04054063          	bltz	a0,1476c <__smakebuf_r+0x84>
   14730:	01812783          	lw	a5,24(sp)
   14734:	0000f737          	lui	a4,0xf
   14738:	ffffe9b7          	lui	s3,0xffffe
   1473c:	00e7f7b3          	and	a5,a5,a4
   14740:	013789b3          	add	s3,a5,s3
   14744:	00008737          	lui	a4,0x8
   14748:	0019b993          	seqz	s3,s3
   1474c:	0ce78063          	beq	a5,a4,1480c <__smakebuf_r+0x124>
   14750:	00c45783          	lhu	a5,12(s0)
   14754:	00001737          	lui	a4,0x1
   14758:	80070713          	addi	a4,a4,-2048 # 800 <_ftext-0xf800>
   1475c:	00e7e7b3          	or	a5,a5,a4
   14760:	00f41623          	sh	a5,12(s0)
   14764:	40000913          	li	s2,1024
   14768:	0300006f          	j	14798 <__smakebuf_r+0xb0>
   1476c:	00c41783          	lh	a5,12(s0)
   14770:	01079713          	slli	a4,a5,0x10
   14774:	01075713          	srli	a4,a4,0x10
   14778:	08077713          	andi	a4,a4,128
   1477c:	04000913          	li	s2,64
   14780:	08070263          	beqz	a4,14804 <__smakebuf_r+0x11c>
   14784:	00001737          	lui	a4,0x1
   14788:	80070713          	addi	a4,a4,-2048 # 800 <_ftext-0xf800>
   1478c:	00e7e7b3          	or	a5,a5,a4
   14790:	00f41623          	sh	a5,12(s0)
   14794:	00000993          	li	s3,0
   14798:	00090593          	mv	a1,s2
   1479c:	00048513          	mv	a0,s1
   147a0:	0e0000ef          	jal	14880 <_malloc_r>
   147a4:	0a050863          	beqz	a0,14854 <__smakebuf_r+0x16c>
   147a8:	00c45783          	lhu	a5,12(s0)
   147ac:	00014737          	lui	a4,0x14
   147b0:	d4070713          	addi	a4,a4,-704 # 13d40 <_cleanup_r>
   147b4:	02e4ae23          	sw	a4,60(s1)
   147b8:	0807e793          	ori	a5,a5,128
   147bc:	00f41623          	sh	a5,12(s0)
   147c0:	00a42023          	sw	a0,0(s0)
   147c4:	00a42823          	sw	a0,16(s0)
   147c8:	01242a23          	sw	s2,20(s0)
   147cc:	06099463          	bnez	s3,14834 <__smakebuf_r+0x14c>
   147d0:	08c12083          	lw	ra,140(sp)
   147d4:	08812403          	lw	s0,136(sp)
   147d8:	08412483          	lw	s1,132(sp)
   147dc:	08012903          	lw	s2,128(sp)
   147e0:	07c12983          	lw	s3,124(sp)
   147e4:	09010113          	addi	sp,sp,144
   147e8:	00008067          	ret
   147ec:	04358793          	addi	a5,a1,67
   147f0:	00f5a023          	sw	a5,0(a1)
   147f4:	00f5a823          	sw	a5,16(a1)
   147f8:	00100793          	li	a5,1
   147fc:	00f5aa23          	sw	a5,20(a1)
   14800:	00008067          	ret
   14804:	40000913          	li	s2,1024
   14808:	f7dff06f          	j	14784 <__smakebuf_r+0x9c>
   1480c:	02842703          	lw	a4,40(s0)
   14810:	000167b7          	lui	a5,0x16
   14814:	4fc78793          	addi	a5,a5,1276 # 164fc <__sseek>
   14818:	f2f71ce3          	bne	a4,a5,14750 <__smakebuf_r+0x68>
   1481c:	00c45783          	lhu	a5,12(s0)
   14820:	40000913          	li	s2,1024
   14824:	05242623          	sw	s2,76(s0)
   14828:	0127e7b3          	or	a5,a5,s2
   1482c:	00f41623          	sh	a5,12(s0)
   14830:	f69ff06f          	j	14798 <__smakebuf_r+0xb0>
   14834:	00e41583          	lh	a1,14(s0)
   14838:	00048513          	mv	a0,s1
   1483c:	1a5030ef          	jal	181e0 <_isatty_r>
   14840:	f80508e3          	beqz	a0,147d0 <__smakebuf_r+0xe8>
   14844:	00c45783          	lhu	a5,12(s0)
   14848:	0017e793          	ori	a5,a5,1
   1484c:	00f41623          	sh	a5,12(s0)
   14850:	f81ff06f          	j	147d0 <__smakebuf_r+0xe8>
   14854:	00c41783          	lh	a5,12(s0)
   14858:	2007f713          	andi	a4,a5,512
   1485c:	f6071ae3          	bnez	a4,147d0 <__smakebuf_r+0xe8>
   14860:	0027e793          	ori	a5,a5,2
   14864:	04340713          	addi	a4,s0,67
   14868:	00f41623          	sh	a5,12(s0)
   1486c:	00100793          	li	a5,1
   14870:	00e42023          	sw	a4,0(s0)
   14874:	00e42823          	sw	a4,16(s0)
   14878:	00f42a23          	sw	a5,20(s0)
   1487c:	f55ff06f          	j	147d0 <__smakebuf_r+0xe8>

00014880 <_malloc_r>:
   14880:	fd010113          	addi	sp,sp,-48
   14884:	02912223          	sw	s1,36(sp)
   14888:	01312e23          	sw	s3,28(sp)
   1488c:	02112623          	sw	ra,44(sp)
   14890:	02812423          	sw	s0,40(sp)
   14894:	03212023          	sw	s2,32(sp)
   14898:	01412c23          	sw	s4,24(sp)
   1489c:	01512a23          	sw	s5,20(sp)
   148a0:	01612823          	sw	s6,16(sp)
   148a4:	01712623          	sw	s7,12(sp)
   148a8:	01812423          	sw	s8,8(sp)
   148ac:	01912223          	sw	s9,4(sp)
   148b0:	00b58493          	addi	s1,a1,11
   148b4:	01600793          	li	a5,22
   148b8:	00050993          	mv	s3,a0
   148bc:	1a97fa63          	bleu	s1,a5,14a70 <_malloc_r+0x1f0>
   148c0:	ff84f493          	andi	s1,s1,-8
   148c4:	2404c063          	bltz	s1,14b04 <_malloc_r+0x284>
   148c8:	22b4ee63          	bltu	s1,a1,14b04 <_malloc_r+0x284>
   148cc:	1bd000ef          	jal	15288 <__malloc_lock>
   148d0:	1f700793          	li	a5,503
   148d4:	6c97fa63          	bleu	s1,a5,14fa8 <_malloc_r+0x728>
   148d8:	0094d793          	srli	a5,s1,0x9
   148dc:	04000593          	li	a1,64
   148e0:	20000693          	li	a3,512
   148e4:	03f00513          	li	a0,63
   148e8:	22079663          	bnez	a5,14b14 <_malloc_r+0x294>
   148ec:	0001d937          	lui	s2,0x1d
   148f0:	e6090913          	addi	s2,s2,-416 # 1ce60 <__malloc_av_>
   148f4:	00d906b3          	add	a3,s2,a3
   148f8:	0046a403          	lw	s0,4(a3)
   148fc:	ff868693          	addi	a3,a3,-8
   14900:	02868c63          	beq	a3,s0,14938 <_malloc_r+0xb8>
   14904:	00442783          	lw	a5,4(s0)
   14908:	00f00613          	li	a2,15
   1490c:	ffc7f793          	andi	a5,a5,-4
   14910:	40978733          	sub	a4,a5,s1
   14914:	02e64063          	blt	a2,a4,14934 <_malloc_r+0xb4>
   14918:	22075c63          	bgez	a4,14b50 <_malloc_r+0x2d0>
   1491c:	00c42403          	lw	s0,12(s0)
   14920:	00868c63          	beq	a3,s0,14938 <_malloc_r+0xb8>
   14924:	00442783          	lw	a5,4(s0)
   14928:	ffc7f793          	andi	a5,a5,-4
   1492c:	40978733          	sub	a4,a5,s1
   14930:	fee654e3          	ble	a4,a2,14918 <_malloc_r+0x98>
   14934:	00050593          	mv	a1,a0
   14938:	01092403          	lw	s0,16(s2)
   1493c:	00890813          	addi	a6,s2,8
   14940:	45040263          	beq	s0,a6,14d84 <_malloc_r+0x504>
   14944:	00442783          	lw	a5,4(s0)
   14948:	00f00693          	li	a3,15
   1494c:	ffc7f793          	andi	a5,a5,-4
   14950:	40978733          	sub	a4,a5,s1
   14954:	42e6c263          	blt	a3,a4,14d78 <_malloc_r+0x4f8>
   14958:	01092a23          	sw	a6,20(s2)
   1495c:	01092823          	sw	a6,16(s2)
   14960:	1c075863          	bgez	a4,14b30 <_malloc_r+0x2b0>
   14964:	1ff00713          	li	a4,511
   14968:	3af76863          	bltu	a4,a5,14d18 <_malloc_r+0x498>
   1496c:	0037d793          	srli	a5,a5,0x3
   14970:	00178713          	addi	a4,a5,1
   14974:	00371713          	slli	a4,a4,0x3
   14978:	00492503          	lw	a0,4(s2)
   1497c:	00e90733          	add	a4,s2,a4
   14980:	00072603          	lw	a2,0(a4)
   14984:	4027d693          	srai	a3,a5,0x2
   14988:	00100793          	li	a5,1
   1498c:	00d797b3          	sll	a5,a5,a3
   14990:	00a7e7b3          	or	a5,a5,a0
   14994:	ff870693          	addi	a3,a4,-8
   14998:	00d42623          	sw	a3,12(s0)
   1499c:	00c42423          	sw	a2,8(s0)
   149a0:	00f92223          	sw	a5,4(s2)
   149a4:	00872023          	sw	s0,0(a4)
   149a8:	00862623          	sw	s0,12(a2)
   149ac:	4025d713          	srai	a4,a1,0x2
   149b0:	00100693          	li	a3,1
   149b4:	00e696b3          	sll	a3,a3,a4
   149b8:	1ad7e263          	bltu	a5,a3,14b5c <_malloc_r+0x2dc>
   149bc:	00f6f733          	and	a4,a3,a5
   149c0:	02071463          	bnez	a4,149e8 <_malloc_r+0x168>
   149c4:	00169693          	slli	a3,a3,0x1
   149c8:	ffc5f593          	andi	a1,a1,-4
   149cc:	00f6f733          	and	a4,a3,a5
   149d0:	00458593          	addi	a1,a1,4
   149d4:	00071a63          	bnez	a4,149e8 <_malloc_r+0x168>
   149d8:	00169693          	slli	a3,a3,0x1
   149dc:	00f6f733          	and	a4,a3,a5
   149e0:	00458593          	addi	a1,a1,4
   149e4:	fe070ae3          	beqz	a4,149d8 <_malloc_r+0x158>
   149e8:	00f00513          	li	a0,15
   149ec:	00359893          	slli	a7,a1,0x3
   149f0:	011908b3          	add	a7,s2,a7
   149f4:	00088613          	mv	a2,a7
   149f8:	00058313          	mv	t1,a1
   149fc:	00c62403          	lw	s0,12(a2)
   14a00:	00861a63          	bne	a2,s0,14a14 <_malloc_r+0x194>
   14a04:	3880006f          	j	14d8c <_malloc_r+0x50c>
   14a08:	3a075463          	bgez	a4,14db0 <_malloc_r+0x530>
   14a0c:	00c42403          	lw	s0,12(s0)
   14a10:	36860e63          	beq	a2,s0,14d8c <_malloc_r+0x50c>
   14a14:	00442783          	lw	a5,4(s0)
   14a18:	ffc7f793          	andi	a5,a5,-4
   14a1c:	40978733          	sub	a4,a5,s1
   14a20:	fee554e3          	ble	a4,a0,14a08 <_malloc_r+0x188>
   14a24:	00c42683          	lw	a3,12(s0)
   14a28:	00842603          	lw	a2,8(s0)
   14a2c:	0014e593          	ori	a1,s1,1
   14a30:	00b42223          	sw	a1,4(s0)
   14a34:	00d62623          	sw	a3,12(a2)
   14a38:	00c6a423          	sw	a2,8(a3)
   14a3c:	009404b3          	add	s1,s0,s1
   14a40:	00992a23          	sw	s1,20(s2)
   14a44:	00992823          	sw	s1,16(s2)
   14a48:	00176693          	ori	a3,a4,1
   14a4c:	0104a623          	sw	a6,12(s1)
   14a50:	0104a423          	sw	a6,8(s1)
   14a54:	00d4a223          	sw	a3,4(s1)
   14a58:	00f407b3          	add	a5,s0,a5
   14a5c:	00098513          	mv	a0,s3
   14a60:	00e7a023          	sw	a4,0(a5)
   14a64:	029000ef          	jal	1528c <__malloc_unlock>
   14a68:	00840513          	addi	a0,s0,8
   14a6c:	0640006f          	j	14ad0 <_malloc_r+0x250>
   14a70:	01000493          	li	s1,16
   14a74:	08b4e863          	bltu	s1,a1,14b04 <_malloc_r+0x284>
   14a78:	011000ef          	jal	15288 <__malloc_lock>
   14a7c:	01800793          	li	a5,24
   14a80:	00200593          	li	a1,2
   14a84:	0001d937          	lui	s2,0x1d
   14a88:	e6090913          	addi	s2,s2,-416 # 1ce60 <__malloc_av_>
   14a8c:	00f907b3          	add	a5,s2,a5
   14a90:	0047a403          	lw	s0,4(a5)
   14a94:	ff878713          	addi	a4,a5,-8
   14a98:	30e40463          	beq	s0,a4,14da0 <_malloc_r+0x520>
   14a9c:	00442783          	lw	a5,4(s0)
   14aa0:	00c42683          	lw	a3,12(s0)
   14aa4:	00842603          	lw	a2,8(s0)
   14aa8:	ffc7f793          	andi	a5,a5,-4
   14aac:	00f407b3          	add	a5,s0,a5
   14ab0:	0047a703          	lw	a4,4(a5)
   14ab4:	00d62623          	sw	a3,12(a2)
   14ab8:	00c6a423          	sw	a2,8(a3)
   14abc:	00176713          	ori	a4,a4,1
   14ac0:	00098513          	mv	a0,s3
   14ac4:	00e7a223          	sw	a4,4(a5)
   14ac8:	7c4000ef          	jal	1528c <__malloc_unlock>
   14acc:	00840513          	addi	a0,s0,8
   14ad0:	02c12083          	lw	ra,44(sp)
   14ad4:	02812403          	lw	s0,40(sp)
   14ad8:	02412483          	lw	s1,36(sp)
   14adc:	02012903          	lw	s2,32(sp)
   14ae0:	01c12983          	lw	s3,28(sp)
   14ae4:	01812a03          	lw	s4,24(sp)
   14ae8:	01412a83          	lw	s5,20(sp)
   14aec:	01012b03          	lw	s6,16(sp)
   14af0:	00c12b83          	lw	s7,12(sp)
   14af4:	00812c03          	lw	s8,8(sp)
   14af8:	00412c83          	lw	s9,4(sp)
   14afc:	03010113          	addi	sp,sp,48
   14b00:	00008067          	ret
   14b04:	00c00793          	li	a5,12
   14b08:	00f9a023          	sw	a5,0(s3) # ffffe000 <_gp+0xfffe0590>
   14b0c:	00000513          	li	a0,0
   14b10:	fc1ff06f          	j	14ad0 <_malloc_r+0x250>
   14b14:	00400713          	li	a4,4
   14b18:	1cf76e63          	bltu	a4,a5,14cf4 <_malloc_r+0x474>
   14b1c:	0064d513          	srli	a0,s1,0x6
   14b20:	03950593          	addi	a1,a0,57
   14b24:	00359693          	slli	a3,a1,0x3
   14b28:	03850513          	addi	a0,a0,56
   14b2c:	dc1ff06f          	j	148ec <_malloc_r+0x6c>
   14b30:	00f407b3          	add	a5,s0,a5
   14b34:	0047a703          	lw	a4,4(a5)
   14b38:	00098513          	mv	a0,s3
   14b3c:	00176713          	ori	a4,a4,1
   14b40:	00e7a223          	sw	a4,4(a5)
   14b44:	748000ef          	jal	1528c <__malloc_unlock>
   14b48:	00840513          	addi	a0,s0,8
   14b4c:	f85ff06f          	j	14ad0 <_malloc_r+0x250>
   14b50:	00c42683          	lw	a3,12(s0)
   14b54:	00842603          	lw	a2,8(s0)
   14b58:	f55ff06f          	j	14aac <_malloc_r+0x22c>
   14b5c:	00892403          	lw	s0,8(s2)
   14b60:	00442783          	lw	a5,4(s0)
   14b64:	ffc7fa93          	andi	s5,a5,-4
   14b68:	009ae863          	bltu	s5,s1,14b78 <_malloc_r+0x2f8>
   14b6c:	409a87b3          	sub	a5,s5,s1
   14b70:	00f00713          	li	a4,15
   14b74:	14f74c63          	blt	a4,a5,14ccc <_malloc_r+0x44c>
   14b78:	88c1aa03          	lw	s4,-1908(gp) # 1d2fc <__malloc_top_pad>
   14b7c:	8101a703          	lw	a4,-2032(gp) # 1d280 <__malloc_sbrk_base>
   14b80:	fff00793          	li	a5,-1
   14b84:	01540b33          	add	s6,s0,s5
   14b88:	01448a33          	add	s4,s1,s4
   14b8c:	34f70c63          	beq	a4,a5,14ee4 <_malloc_r+0x664>
   14b90:	000017b7          	lui	a5,0x1
   14b94:	00f78793          	addi	a5,a5,15 # 100f <_ftext-0xeff1>
   14b98:	00fa0a33          	add	s4,s4,a5
   14b9c:	fffff7b7          	lui	a5,0xfffff
   14ba0:	00fa7a33          	and	s4,s4,a5
   14ba4:	000a0593          	mv	a1,s4
   14ba8:	00098513          	mv	a0,s3
   14bac:	798010ef          	jal	16344 <_sbrk_r>
   14bb0:	fff00793          	li	a5,-1
   14bb4:	00050b93          	mv	s7,a0
   14bb8:	24f50863          	beq	a0,a5,14e08 <_malloc_r+0x588>
   14bbc:	25656463          	bltu	a0,s6,14e04 <_malloc_r+0x584>
   14bc0:	8b818c13          	addi	s8,gp,-1864 # 1d328 <__malloc_current_mallinfo>
   14bc4:	000c2703          	lw	a4,0(s8)
   14bc8:	00ea0733          	add	a4,s4,a4
   14bcc:	00ec2023          	sw	a4,0(s8)
   14bd0:	34ab0663          	beq	s6,a0,14f1c <_malloc_r+0x69c>
   14bd4:	8101a683          	lw	a3,-2032(gp) # 1d280 <__malloc_sbrk_base>
   14bd8:	fff00793          	li	a5,-1
   14bdc:	36f68e63          	beq	a3,a5,14f58 <_malloc_r+0x6d8>
   14be0:	416b8b33          	sub	s6,s7,s6
   14be4:	00eb0733          	add	a4,s6,a4
   14be8:	00ec2023          	sw	a4,0(s8)
   14bec:	007bf793          	andi	a5,s7,7
   14bf0:	00001737          	lui	a4,0x1
   14bf4:	00078a63          	beqz	a5,14c08 <_malloc_r+0x388>
   14bf8:	40fb8bb3          	sub	s7,s7,a5
   14bfc:	00870713          	addi	a4,a4,8 # 1008 <_ftext-0xeff8>
   14c00:	008b8b93          	addi	s7,s7,8
   14c04:	40f70733          	sub	a4,a4,a5
   14c08:	000016b7          	lui	a3,0x1
   14c0c:	014b87b3          	add	a5,s7,s4
   14c10:	fff68693          	addi	a3,a3,-1 # fff <_ftext-0xf001>
   14c14:	00d7f7b3          	and	a5,a5,a3
   14c18:	40f70a33          	sub	s4,a4,a5
   14c1c:	000a0593          	mv	a1,s4
   14c20:	00098513          	mv	a0,s3
   14c24:	720010ef          	jal	16344 <_sbrk_r>
   14c28:	fff00793          	li	a5,-1
   14c2c:	32f50063          	beq	a0,a5,14f4c <_malloc_r+0x6cc>
   14c30:	417507b3          	sub	a5,a0,s7
   14c34:	014787b3          	add	a5,a5,s4
   14c38:	0017e793          	ori	a5,a5,1
   14c3c:	000c2703          	lw	a4,0(s8)
   14c40:	01792423          	sw	s7,8(s2)
   14c44:	00fba223          	sw	a5,4(s7)
   14c48:	00ea0733          	add	a4,s4,a4
   14c4c:	00ec2023          	sw	a4,0(s8)
   14c50:	03240c63          	beq	s0,s2,14c88 <_malloc_r+0x408>
   14c54:	00f00613          	li	a2,15
   14c58:	25567c63          	bleu	s5,a2,14eb0 <_malloc_r+0x630>
   14c5c:	00442683          	lw	a3,4(s0)
   14c60:	ff4a8793          	addi	a5,s5,-12
   14c64:	ff87f793          	andi	a5,a5,-8
   14c68:	0016f693          	andi	a3,a3,1
   14c6c:	00f6e6b3          	or	a3,a3,a5
   14c70:	00d42223          	sw	a3,4(s0)
   14c74:	00500593          	li	a1,5
   14c78:	00f406b3          	add	a3,s0,a5
   14c7c:	00b6a223          	sw	a1,4(a3)
   14c80:	00b6a423          	sw	a1,8(a3)
   14c84:	2af66a63          	bltu	a2,a5,14f38 <_malloc_r+0x6b8>
   14c88:	8881a683          	lw	a3,-1912(gp) # 1d2f8 <__malloc_max_sbrked_mem>
   14c8c:	00e6f463          	bleu	a4,a3,14c94 <_malloc_r+0x414>
   14c90:	88e1a423          	sw	a4,-1912(gp) # 1d2f8 <__malloc_max_sbrked_mem>
   14c94:	8841a683          	lw	a3,-1916(gp) # 1d2f4 <__malloc_max_total_mem>
   14c98:	00892403          	lw	s0,8(s2)
   14c9c:	00e6f463          	bleu	a4,a3,14ca4 <_malloc_r+0x424>
   14ca0:	88e1a223          	sw	a4,-1916(gp) # 1d2f4 <__malloc_max_total_mem>
   14ca4:	00442703          	lw	a4,4(s0)
   14ca8:	ffc77713          	andi	a4,a4,-4
   14cac:	409707b3          	sub	a5,a4,s1
   14cb0:	00976663          	bltu	a4,s1,14cbc <_malloc_r+0x43c>
   14cb4:	00f00713          	li	a4,15
   14cb8:	00f74a63          	blt	a4,a5,14ccc <_malloc_r+0x44c>
   14cbc:	00098513          	mv	a0,s3
   14cc0:	5cc000ef          	jal	1528c <__malloc_unlock>
   14cc4:	00000513          	li	a0,0
   14cc8:	e09ff06f          	j	14ad0 <_malloc_r+0x250>
   14ccc:	0014e713          	ori	a4,s1,1
   14cd0:	00e42223          	sw	a4,4(s0)
   14cd4:	009404b3          	add	s1,s0,s1
   14cd8:	00992423          	sw	s1,8(s2)
   14cdc:	0017e793          	ori	a5,a5,1
   14ce0:	00098513          	mv	a0,s3
   14ce4:	00f4a223          	sw	a5,4(s1)
   14ce8:	5a4000ef          	jal	1528c <__malloc_unlock>
   14cec:	00840513          	addi	a0,s0,8
   14cf0:	de1ff06f          	j	14ad0 <_malloc_r+0x250>
   14cf4:	01400713          	li	a4,20
   14cf8:	0ef77463          	bleu	a5,a4,14de0 <_malloc_r+0x560>
   14cfc:	05400713          	li	a4,84
   14d00:	16f76a63          	bltu	a4,a5,14e74 <_malloc_r+0x5f4>
   14d04:	00c4d513          	srli	a0,s1,0xc
   14d08:	06f50593          	addi	a1,a0,111
   14d0c:	00359693          	slli	a3,a1,0x3
   14d10:	06e50513          	addi	a0,a0,110
   14d14:	bd9ff06f          	j	148ec <_malloc_r+0x6c>
   14d18:	0097d713          	srli	a4,a5,0x9
   14d1c:	00400693          	li	a3,4
   14d20:	0ce6f863          	bleu	a4,a3,14df0 <_malloc_r+0x570>
   14d24:	01400693          	li	a3,20
   14d28:	1ce6e263          	bltu	a3,a4,14eec <_malloc_r+0x66c>
   14d2c:	05c70613          	addi	a2,a4,92
   14d30:	05b70693          	addi	a3,a4,91
   14d34:	00361613          	slli	a2,a2,0x3
   14d38:	00c90633          	add	a2,s2,a2
   14d3c:	00062703          	lw	a4,0(a2)
   14d40:	ff860613          	addi	a2,a2,-8
   14d44:	14e60663          	beq	a2,a4,14e90 <_malloc_r+0x610>
   14d48:	00472683          	lw	a3,4(a4)
   14d4c:	ffc6f693          	andi	a3,a3,-4
   14d50:	10d7fe63          	bleu	a3,a5,14e6c <_malloc_r+0x5ec>
   14d54:	00872703          	lw	a4,8(a4)
   14d58:	fee618e3          	bne	a2,a4,14d48 <_malloc_r+0x4c8>
   14d5c:	00c62703          	lw	a4,12(a2)
   14d60:	00492783          	lw	a5,4(s2)
   14d64:	00e42623          	sw	a4,12(s0)
   14d68:	00c42423          	sw	a2,8(s0)
   14d6c:	00872423          	sw	s0,8(a4)
   14d70:	00862623          	sw	s0,12(a2)
   14d74:	c39ff06f          	j	149ac <_malloc_r+0x12c>
   14d78:	0014e693          	ori	a3,s1,1
   14d7c:	00d42223          	sw	a3,4(s0)
   14d80:	cbdff06f          	j	14a3c <_malloc_r+0x1bc>
   14d84:	00492783          	lw	a5,4(s2)
   14d88:	c25ff06f          	j	149ac <_malloc_r+0x12c>
   14d8c:	00130313          	addi	t1,t1,1
   14d90:	00337793          	andi	a5,t1,3
   14d94:	00860613          	addi	a2,a2,8
   14d98:	c60792e3          	bnez	a5,149fc <_malloc_r+0x17c>
   14d9c:	0880006f          	j	14e24 <_malloc_r+0x5a4>
   14da0:	00c7a403          	lw	s0,12(a5) # fffff00c <_gp+0xfffe159c>
   14da4:	00258593          	addi	a1,a1,2
   14da8:	b88788e3          	beq	a5,s0,14938 <_malloc_r+0xb8>
   14dac:	cf1ff06f          	j	14a9c <_malloc_r+0x21c>
   14db0:	00f407b3          	add	a5,s0,a5
   14db4:	0047a703          	lw	a4,4(a5)
   14db8:	00c42683          	lw	a3,12(s0)
   14dbc:	00842603          	lw	a2,8(s0)
   14dc0:	00176713          	ori	a4,a4,1
   14dc4:	00e7a223          	sw	a4,4(a5)
   14dc8:	00d62623          	sw	a3,12(a2)
   14dcc:	00098513          	mv	a0,s3
   14dd0:	00c6a423          	sw	a2,8(a3)
   14dd4:	4b8000ef          	jal	1528c <__malloc_unlock>
   14dd8:	00840513          	addi	a0,s0,8
   14ddc:	cf5ff06f          	j	14ad0 <_malloc_r+0x250>
   14de0:	05c78593          	addi	a1,a5,92
   14de4:	05b78513          	addi	a0,a5,91
   14de8:	00359693          	slli	a3,a1,0x3
   14dec:	b01ff06f          	j	148ec <_malloc_r+0x6c>
   14df0:	0067d693          	srli	a3,a5,0x6
   14df4:	03968613          	addi	a2,a3,57
   14df8:	00361613          	slli	a2,a2,0x3
   14dfc:	03868693          	addi	a3,a3,56
   14e00:	f39ff06f          	j	14d38 <_malloc_r+0x4b8>
   14e04:	11240263          	beq	s0,s2,14f08 <_malloc_r+0x688>
   14e08:	00892403          	lw	s0,8(s2)
   14e0c:	00442703          	lw	a4,4(s0)
   14e10:	ffc77713          	andi	a4,a4,-4
   14e14:	e99ff06f          	j	14cac <_malloc_r+0x42c>
   14e18:	0088a783          	lw	a5,8(a7)
   14e1c:	fff58593          	addi	a1,a1,-1
   14e20:	18f89063          	bne	a7,a5,14fa0 <_malloc_r+0x720>
   14e24:	0035f793          	andi	a5,a1,3
   14e28:	ff888893          	addi	a7,a7,-8
   14e2c:	fe0796e3          	bnez	a5,14e18 <_malloc_r+0x598>
   14e30:	00492703          	lw	a4,4(s2)
   14e34:	fff6c793          	not	a5,a3
   14e38:	00e7f7b3          	and	a5,a5,a4
   14e3c:	00f92223          	sw	a5,4(s2)
   14e40:	00169693          	slli	a3,a3,0x1
   14e44:	d0d7ece3          	bltu	a5,a3,14b5c <_malloc_r+0x2dc>
   14e48:	d0068ae3          	beqz	a3,14b5c <_malloc_r+0x2dc>
   14e4c:	00f6f733          	and	a4,a3,a5
   14e50:	00030593          	mv	a1,t1
   14e54:	b8071ce3          	bnez	a4,149ec <_malloc_r+0x16c>
   14e58:	00169693          	slli	a3,a3,0x1
   14e5c:	00f6f733          	and	a4,a3,a5
   14e60:	00458593          	addi	a1,a1,4
   14e64:	fe070ae3          	beqz	a4,14e58 <_malloc_r+0x5d8>
   14e68:	b85ff06f          	j	149ec <_malloc_r+0x16c>
   14e6c:	00070613          	mv	a2,a4
   14e70:	eedff06f          	j	14d5c <_malloc_r+0x4dc>
   14e74:	15400713          	li	a4,340
   14e78:	04f76263          	bltu	a4,a5,14ebc <_malloc_r+0x63c>
   14e7c:	00f4d513          	srli	a0,s1,0xf
   14e80:	07850593          	addi	a1,a0,120
   14e84:	00359693          	slli	a3,a1,0x3
   14e88:	07750513          	addi	a0,a0,119
   14e8c:	a61ff06f          	j	148ec <_malloc_r+0x6c>
   14e90:	00492703          	lw	a4,4(s2)
   14e94:	4026d693          	srai	a3,a3,0x2
   14e98:	00100793          	li	a5,1
   14e9c:	00d797b3          	sll	a5,a5,a3
   14ea0:	00e7e7b3          	or	a5,a5,a4
   14ea4:	00f92223          	sw	a5,4(s2)
   14ea8:	00060713          	mv	a4,a2
   14eac:	eb9ff06f          	j	14d64 <_malloc_r+0x4e4>
   14eb0:	00100793          	li	a5,1
   14eb4:	00fba223          	sw	a5,4(s7)
   14eb8:	e05ff06f          	j	14cbc <_malloc_r+0x43c>
   14ebc:	55400713          	li	a4,1364
   14ec0:	07f00593          	li	a1,127
   14ec4:	3f800693          	li	a3,1016
   14ec8:	07e00513          	li	a0,126
   14ecc:	a2f760e3          	bltu	a4,a5,148ec <_malloc_r+0x6c>
   14ed0:	0124d513          	srli	a0,s1,0x12
   14ed4:	07d50593          	addi	a1,a0,125
   14ed8:	00359693          	slli	a3,a1,0x3
   14edc:	07c50513          	addi	a0,a0,124
   14ee0:	a0dff06f          	j	148ec <_malloc_r+0x6c>
   14ee4:	010a0a13          	addi	s4,s4,16
   14ee8:	cbdff06f          	j	14ba4 <_malloc_r+0x324>
   14eec:	05400693          	li	a3,84
   14ef0:	06e6e863          	bltu	a3,a4,14f60 <_malloc_r+0x6e0>
   14ef4:	00c7d693          	srli	a3,a5,0xc
   14ef8:	06f68613          	addi	a2,a3,111
   14efc:	00361613          	slli	a2,a2,0x3
   14f00:	06e68693          	addi	a3,a3,110
   14f04:	e35ff06f          	j	14d38 <_malloc_r+0x4b8>
   14f08:	8b818c13          	addi	s8,gp,-1864 # 1d328 <__malloc_current_mallinfo>
   14f0c:	000c2703          	lw	a4,0(s8)
   14f10:	00ea0733          	add	a4,s4,a4
   14f14:	00ec2023          	sw	a4,0(s8)
   14f18:	cbdff06f          	j	14bd4 <_malloc_r+0x354>
   14f1c:	014b1793          	slli	a5,s6,0x14
   14f20:	ca079ae3          	bnez	a5,14bd4 <_malloc_r+0x354>
   14f24:	00892683          	lw	a3,8(s2)
   14f28:	014a87b3          	add	a5,s5,s4
   14f2c:	0017e793          	ori	a5,a5,1
   14f30:	00f6a223          	sw	a5,4(a3)
   14f34:	d55ff06f          	j	14c88 <_malloc_r+0x408>
   14f38:	00840593          	addi	a1,s0,8
   14f3c:	00098513          	mv	a0,s3
   14f40:	a90ff0ef          	jal	141d0 <_free_r>
   14f44:	000c2703          	lw	a4,0(s8)
   14f48:	d41ff06f          	j	14c88 <_malloc_r+0x408>
   14f4c:	00100793          	li	a5,1
   14f50:	00000a13          	li	s4,0
   14f54:	ce9ff06f          	j	14c3c <_malloc_r+0x3bc>
   14f58:	8171a823          	sw	s7,-2032(gp) # 1d280 <__malloc_sbrk_base>
   14f5c:	c91ff06f          	j	14bec <_malloc_r+0x36c>
   14f60:	15400693          	li	a3,340
   14f64:	00e6ec63          	bltu	a3,a4,14f7c <_malloc_r+0x6fc>
   14f68:	00f7d693          	srli	a3,a5,0xf
   14f6c:	07868613          	addi	a2,a3,120
   14f70:	00361613          	slli	a2,a2,0x3
   14f74:	07768693          	addi	a3,a3,119
   14f78:	dc1ff06f          	j	14d38 <_malloc_r+0x4b8>
   14f7c:	55400513          	li	a0,1364
   14f80:	3f800613          	li	a2,1016
   14f84:	07e00693          	li	a3,126
   14f88:	dae568e3          	bltu	a0,a4,14d38 <_malloc_r+0x4b8>
   14f8c:	0127d693          	srli	a3,a5,0x12
   14f90:	07d68613          	addi	a2,a3,125
   14f94:	00361613          	slli	a2,a2,0x3
   14f98:	07c68693          	addi	a3,a3,124
   14f9c:	d9dff06f          	j	14d38 <_malloc_r+0x4b8>
   14fa0:	00492783          	lw	a5,4(s2)
   14fa4:	e9dff06f          	j	14e40 <_malloc_r+0x5c0>
   14fa8:	0034d593          	srli	a1,s1,0x3
   14fac:	00848793          	addi	a5,s1,8
   14fb0:	ad5ff06f          	j	14a84 <_malloc_r+0x204>

00014fb4 <memchr>:
   14fb4:	00357793          	andi	a5,a0,3
   14fb8:	0ff5f813          	andi	a6,a1,255
   14fbc:	0c078663          	beqz	a5,15088 <memchr+0xd4>
   14fc0:	fff60793          	addi	a5,a2,-1
   14fc4:	04060e63          	beqz	a2,15020 <memchr+0x6c>
   14fc8:	00054703          	lbu	a4,0(a0)
   14fcc:	fff00693          	li	a3,-1
   14fd0:	01071c63          	bne	a4,a6,14fe8 <memchr+0x34>
   14fd4:	0500006f          	j	15024 <memchr+0x70>
   14fd8:	fff78793          	addi	a5,a5,-1
   14fdc:	04d78263          	beq	a5,a3,15020 <memchr+0x6c>
   14fe0:	00054703          	lbu	a4,0(a0)
   14fe4:	05070063          	beq	a4,a6,15024 <memchr+0x70>
   14fe8:	00150513          	addi	a0,a0,1
   14fec:	00357713          	andi	a4,a0,3
   14ff0:	fe0714e3          	bnez	a4,14fd8 <memchr+0x24>
   14ff4:	00300713          	li	a4,3
   14ff8:	02f76863          	bltu	a4,a5,15028 <memchr+0x74>
   14ffc:	02078263          	beqz	a5,15020 <memchr+0x6c>
   15000:	00054703          	lbu	a4,0(a0)
   15004:	03070063          	beq	a4,a6,15024 <memchr+0x70>
   15008:	00f507b3          	add	a5,a0,a5
   1500c:	00c0006f          	j	15018 <memchr+0x64>
   15010:	00054703          	lbu	a4,0(a0)
   15014:	01070863          	beq	a4,a6,15024 <memchr+0x70>
   15018:	00150513          	addi	a0,a0,1
   1501c:	fea79ae3          	bne	a5,a0,15010 <memchr+0x5c>
   15020:	00000513          	li	a0,0
   15024:	00008067          	ret
   15028:	000106b7          	lui	a3,0x10
   1502c:	00859613          	slli	a2,a1,0x8
   15030:	fff68693          	addi	a3,a3,-1 # ffff <_ftext-0x1>
   15034:	00d67633          	and	a2,a2,a3
   15038:	0ff5f593          	andi	a1,a1,255
   1503c:	00b66633          	or	a2,a2,a1
   15040:	01061693          	slli	a3,a2,0x10
   15044:	feff0337          	lui	t1,0xfeff0
   15048:	808088b7          	lui	a7,0x80808
   1504c:	00d66633          	or	a2,a2,a3
   15050:	eff30313          	addi	t1,t1,-257 # fefefeff <_gp+0xfefd248f>
   15054:	08088893          	addi	a7,a7,128 # 80808080 <_gp+0x807ea610>
   15058:	00070593          	mv	a1,a4
   1505c:	00052703          	lw	a4,0(a0)
   15060:	00e64733          	xor	a4,a2,a4
   15064:	006706b3          	add	a3,a4,t1
   15068:	fff74713          	not	a4,a4
   1506c:	00e6f733          	and	a4,a3,a4
   15070:	01177733          	and	a4,a4,a7
   15074:	f80716e3          	bnez	a4,15000 <memchr+0x4c>
   15078:	ffc78793          	addi	a5,a5,-4
   1507c:	00450513          	addi	a0,a0,4
   15080:	fcf5eee3          	bltu	a1,a5,1505c <memchr+0xa8>
   15084:	f79ff06f          	j	14ffc <memchr+0x48>
   15088:	00060793          	mv	a5,a2
   1508c:	f69ff06f          	j	14ff4 <memchr+0x40>

00015090 <memcpy>:
   15090:	00a5c7b3          	xor	a5,a1,a0
   15094:	0037f793          	andi	a5,a5,3
   15098:	00c508b3          	add	a7,a0,a2
   1509c:	0e079863          	bnez	a5,1518c <memcpy+0xfc>
   150a0:	00300793          	li	a5,3
   150a4:	0ec7f463          	bleu	a2,a5,1518c <memcpy+0xfc>
   150a8:	00357793          	andi	a5,a0,3
   150ac:	00050713          	mv	a4,a0
   150b0:	04079863          	bnez	a5,15100 <memcpy+0x70>
   150b4:	ffc8f813          	andi	a6,a7,-4
   150b8:	fe080793          	addi	a5,a6,-32
   150bc:	06f76c63          	bltu	a4,a5,15134 <memcpy+0xa4>
   150c0:	03077c63          	bleu	a6,a4,150f8 <memcpy+0x68>
   150c4:	00058693          	mv	a3,a1
   150c8:	00070793          	mv	a5,a4
   150cc:	0006a603          	lw	a2,0(a3)
   150d0:	00478793          	addi	a5,a5,4
   150d4:	00468693          	addi	a3,a3,4
   150d8:	fec7ae23          	sw	a2,-4(a5)
   150dc:	ff07e8e3          	bltu	a5,a6,150cc <memcpy+0x3c>
   150e0:	fff74793          	not	a5,a4
   150e4:	01078833          	add	a6,a5,a6
   150e8:	ffc87813          	andi	a6,a6,-4
   150ec:	00480813          	addi	a6,a6,4
   150f0:	01070733          	add	a4,a4,a6
   150f4:	010585b3          	add	a1,a1,a6
   150f8:	09176e63          	bltu	a4,a7,15194 <memcpy+0x104>
   150fc:	00008067          	ret
   15100:	0005c683          	lbu	a3,0(a1)
   15104:	00170713          	addi	a4,a4,1
   15108:	00377793          	andi	a5,a4,3
   1510c:	fed70fa3          	sb	a3,-1(a4)
   15110:	00158593          	addi	a1,a1,1
   15114:	fa0780e3          	beqz	a5,150b4 <memcpy+0x24>
   15118:	0005c683          	lbu	a3,0(a1)
   1511c:	00170713          	addi	a4,a4,1
   15120:	00377793          	andi	a5,a4,3
   15124:	fed70fa3          	sb	a3,-1(a4)
   15128:	00158593          	addi	a1,a1,1
   1512c:	fc079ae3          	bnez	a5,15100 <memcpy+0x70>
   15130:	f85ff06f          	j	150b4 <memcpy+0x24>
   15134:	0005a383          	lw	t2,0(a1)
   15138:	0045a283          	lw	t0,4(a1)
   1513c:	0085af83          	lw	t6,8(a1)
   15140:	00c5af03          	lw	t5,12(a1)
   15144:	0105ae83          	lw	t4,16(a1)
   15148:	0145ae03          	lw	t3,20(a1)
   1514c:	0185a303          	lw	t1,24(a1)
   15150:	01c5a603          	lw	a2,28(a1)
   15154:	02458593          	addi	a1,a1,36
   15158:	02470713          	addi	a4,a4,36
   1515c:	ffc5a683          	lw	a3,-4(a1)
   15160:	fc772e23          	sw	t2,-36(a4)
   15164:	fe572023          	sw	t0,-32(a4)
   15168:	fff72223          	sw	t6,-28(a4)
   1516c:	ffe72423          	sw	t5,-24(a4)
   15170:	ffd72623          	sw	t4,-20(a4)
   15174:	ffc72823          	sw	t3,-16(a4)
   15178:	fe672a23          	sw	t1,-12(a4)
   1517c:	fec72c23          	sw	a2,-8(a4)
   15180:	fed72e23          	sw	a3,-4(a4)
   15184:	faf768e3          	bltu	a4,a5,15134 <memcpy+0xa4>
   15188:	f39ff06f          	j	150c0 <memcpy+0x30>
   1518c:	00050713          	mv	a4,a0
   15190:	f71576e3          	bleu	a7,a0,150fc <memcpy+0x6c>
   15194:	0005c783          	lbu	a5,0(a1)
   15198:	00170713          	addi	a4,a4,1
   1519c:	00158593          	addi	a1,a1,1
   151a0:	fef70fa3          	sb	a5,-1(a4)
   151a4:	ff1768e3          	bltu	a4,a7,15194 <memcpy+0x104>
   151a8:	00008067          	ret

000151ac <memset>:
   151ac:	00f00813          	li	a6,15
   151b0:	00050713          	mv	a4,a0
   151b4:	02c87e63          	bleu	a2,a6,151f0 <memset+0x44>
   151b8:	00f77793          	andi	a5,a4,15
   151bc:	0a079063          	bnez	a5,1525c <memset+0xb0>
   151c0:	08059263          	bnez	a1,15244 <memset+0x98>
   151c4:	ff067693          	andi	a3,a2,-16
   151c8:	00f67613          	andi	a2,a2,15
   151cc:	00e686b3          	add	a3,a3,a4
   151d0:	00b72023          	sw	a1,0(a4)
   151d4:	00b72223          	sw	a1,4(a4)
   151d8:	00b72423          	sw	a1,8(a4)
   151dc:	00b72623          	sw	a1,12(a4)
   151e0:	01070713          	addi	a4,a4,16
   151e4:	fed766e3          	bltu	a4,a3,151d0 <memset+0x24>
   151e8:	00061463          	bnez	a2,151f0 <memset+0x44>
   151ec:	00008067          	ret
   151f0:	40c806b3          	sub	a3,a6,a2
   151f4:	00269693          	slli	a3,a3,0x2
   151f8:	00000297          	auipc	t0,0x0
   151fc:	005686b3          	add	a3,a3,t0
   15200:	00c68067          	jr	a3,12
   15204:	00b70723          	sb	a1,14(a4)
   15208:	00b706a3          	sb	a1,13(a4)
   1520c:	00b70623          	sb	a1,12(a4)
   15210:	00b705a3          	sb	a1,11(a4)
   15214:	00b70523          	sb	a1,10(a4)
   15218:	00b704a3          	sb	a1,9(a4)
   1521c:	00b70423          	sb	a1,8(a4)
   15220:	00b703a3          	sb	a1,7(a4)
   15224:	00b70323          	sb	a1,6(a4)
   15228:	00b702a3          	sb	a1,5(a4)
   1522c:	00b70223          	sb	a1,4(a4)
   15230:	00b701a3          	sb	a1,3(a4)
   15234:	00b70123          	sb	a1,2(a4)
   15238:	00b700a3          	sb	a1,1(a4)
   1523c:	00b70023          	sb	a1,0(a4)
   15240:	00008067          	ret
   15244:	0ff5f593          	andi	a1,a1,255
   15248:	00859693          	slli	a3,a1,0x8
   1524c:	00d5e5b3          	or	a1,a1,a3
   15250:	01059693          	slli	a3,a1,0x10
   15254:	00d5e5b3          	or	a1,a1,a3
   15258:	f6dff06f          	j	151c4 <memset+0x18>
   1525c:	00279693          	slli	a3,a5,0x2
   15260:	00000297          	auipc	t0,0x0
   15264:	005686b3          	add	a3,a3,t0
   15268:	00008293          	mv	t0,ra
   1526c:	fa0680e7          	jalr	a3,-96
   15270:	00028093          	mv	ra,t0
   15274:	ff078793          	addi	a5,a5,-16
   15278:	40f70733          	sub	a4,a4,a5
   1527c:	00f60633          	add	a2,a2,a5
   15280:	f6c878e3          	bleu	a2,a6,151f0 <memset+0x44>
   15284:	f3dff06f          	j	151c0 <memset+0x14>

00015288 <__malloc_lock>:
   15288:	00008067          	ret

0001528c <__malloc_unlock>:
   1528c:	00008067          	ret

00015290 <_Balloc>:
   15290:	04c52783          	lw	a5,76(a0)
   15294:	ff010113          	addi	sp,sp,-16
   15298:	00812423          	sw	s0,8(sp)
   1529c:	00912223          	sw	s1,4(sp)
   152a0:	00112623          	sw	ra,12(sp)
   152a4:	01212023          	sw	s2,0(sp)
   152a8:	00050413          	mv	s0,a0
   152ac:	00058493          	mv	s1,a1
   152b0:	02078e63          	beqz	a5,152ec <_Balloc+0x5c>
   152b4:	00249513          	slli	a0,s1,0x2
   152b8:	00a787b3          	add	a5,a5,a0
   152bc:	0007a503          	lw	a0,0(a5)
   152c0:	04050663          	beqz	a0,1530c <_Balloc+0x7c>
   152c4:	00052703          	lw	a4,0(a0)
   152c8:	00e7a023          	sw	a4,0(a5)
   152cc:	00052823          	sw	zero,16(a0)
   152d0:	00052623          	sw	zero,12(a0)
   152d4:	00c12083          	lw	ra,12(sp)
   152d8:	00812403          	lw	s0,8(sp)
   152dc:	00412483          	lw	s1,4(sp)
   152e0:	00012903          	lw	s2,0(sp)
   152e4:	01010113          	addi	sp,sp,16
   152e8:	00008067          	ret
   152ec:	02100613          	li	a2,33
   152f0:	00400593          	li	a1,4
   152f4:	5bc020ef          	jal	178b0 <_calloc_r>
   152f8:	04a42623          	sw	a0,76(s0)
   152fc:	00050793          	mv	a5,a0
   15300:	fa051ae3          	bnez	a0,152b4 <_Balloc+0x24>
   15304:	00000513          	li	a0,0
   15308:	fcdff06f          	j	152d4 <_Balloc+0x44>
   1530c:	00100593          	li	a1,1
   15310:	00959933          	sll	s2,a1,s1
   15314:	00590613          	addi	a2,s2,5
   15318:	00261613          	slli	a2,a2,0x2
   1531c:	00040513          	mv	a0,s0
   15320:	590020ef          	jal	178b0 <_calloc_r>
   15324:	fe0500e3          	beqz	a0,15304 <_Balloc+0x74>
   15328:	00952223          	sw	s1,4(a0)
   1532c:	01252423          	sw	s2,8(a0)
   15330:	f9dff06f          	j	152cc <_Balloc+0x3c>

00015334 <_Bfree>:
   15334:	02058063          	beqz	a1,15354 <_Bfree+0x20>
   15338:	0045a703          	lw	a4,4(a1)
   1533c:	04c52783          	lw	a5,76(a0)
   15340:	00271713          	slli	a4,a4,0x2
   15344:	00e787b3          	add	a5,a5,a4
   15348:	0007a703          	lw	a4,0(a5)
   1534c:	00e5a023          	sw	a4,0(a1)
   15350:	00b7a023          	sw	a1,0(a5)
   15354:	00008067          	ret

00015358 <__multadd>:
   15358:	fd010113          	addi	sp,sp,-48
   1535c:	01312e23          	sw	s3,28(sp)
   15360:	0105a983          	lw	s3,16(a1)
   15364:	01812423          	sw	s8,8(sp)
   15368:	00010c37          	lui	s8,0x10
   1536c:	02812423          	sw	s0,40(sp)
   15370:	02912223          	sw	s1,36(sp)
   15374:	03212023          	sw	s2,32(sp)
   15378:	01412c23          	sw	s4,24(sp)
   1537c:	01512a23          	sw	s5,20(sp)
   15380:	01612823          	sw	s6,16(sp)
   15384:	02112623          	sw	ra,44(sp)
   15388:	01712623          	sw	s7,12(sp)
   1538c:	00058a13          	mv	s4,a1
   15390:	00050a93          	mv	s5,a0
   15394:	00060913          	mv	s2,a2
   15398:	00068413          	mv	s0,a3
   1539c:	01458493          	addi	s1,a1,20
   153a0:	00000b13          	li	s6,0
   153a4:	fffc0c13          	addi	s8,s8,-1 # ffff <_ftext-0x1>
   153a8:	0004ab83          	lw	s7,0(s1)
   153ac:	00090593          	mv	a1,s2
   153b0:	00448493          	addi	s1,s1,4
   153b4:	018bf533          	and	a0,s7,s8
   153b8:	725040ef          	jal	1a2dc <__mulsi3>
   153bc:	00850433          	add	s0,a0,s0
   153c0:	00090593          	mv	a1,s2
   153c4:	010bd513          	srli	a0,s7,0x10
   153c8:	715040ef          	jal	1a2dc <__mulsi3>
   153cc:	01045693          	srli	a3,s0,0x10
   153d0:	00d50533          	add	a0,a0,a3
   153d4:	01051693          	slli	a3,a0,0x10
   153d8:	01847433          	and	s0,s0,s8
   153dc:	00868433          	add	s0,a3,s0
   153e0:	fe84ae23          	sw	s0,-4(s1)
   153e4:	001b0b13          	addi	s6,s6,1
   153e8:	01055413          	srli	s0,a0,0x10
   153ec:	fb3b4ee3          	blt	s6,s3,153a8 <__multadd+0x50>
   153f0:	02040263          	beqz	s0,15414 <__multadd+0xbc>
   153f4:	008a2783          	lw	a5,8(s4)
   153f8:	04f9d863          	ble	a5,s3,15448 <__multadd+0xf0>
   153fc:	00498793          	addi	a5,s3,4
   15400:	00279793          	slli	a5,a5,0x2
   15404:	00fa07b3          	add	a5,s4,a5
   15408:	0087a223          	sw	s0,4(a5)
   1540c:	00198993          	addi	s3,s3,1
   15410:	013a2823          	sw	s3,16(s4)
   15414:	02c12083          	lw	ra,44(sp)
   15418:	000a0513          	mv	a0,s4
   1541c:	02812403          	lw	s0,40(sp)
   15420:	02412483          	lw	s1,36(sp)
   15424:	02012903          	lw	s2,32(sp)
   15428:	01c12983          	lw	s3,28(sp)
   1542c:	01812a03          	lw	s4,24(sp)
   15430:	01412a83          	lw	s5,20(sp)
   15434:	01012b03          	lw	s6,16(sp)
   15438:	00c12b83          	lw	s7,12(sp)
   1543c:	00812c03          	lw	s8,8(sp)
   15440:	03010113          	addi	sp,sp,48
   15444:	00008067          	ret
   15448:	004a2583          	lw	a1,4(s4)
   1544c:	000a8513          	mv	a0,s5
   15450:	00158593          	addi	a1,a1,1
   15454:	e3dff0ef          	jal	15290 <_Balloc>
   15458:	010a2603          	lw	a2,16(s4)
   1545c:	00050493          	mv	s1,a0
   15460:	00ca0593          	addi	a1,s4,12
   15464:	00260613          	addi	a2,a2,2
   15468:	00c50513          	addi	a0,a0,12
   1546c:	00261613          	slli	a2,a2,0x2
   15470:	c21ff0ef          	jal	15090 <memcpy>
   15474:	004a2703          	lw	a4,4(s4)
   15478:	04caa783          	lw	a5,76(s5)
   1547c:	00271713          	slli	a4,a4,0x2
   15480:	00e787b3          	add	a5,a5,a4
   15484:	0007a703          	lw	a4,0(a5)
   15488:	00ea2023          	sw	a4,0(s4)
   1548c:	0147a023          	sw	s4,0(a5)
   15490:	00048a13          	mv	s4,s1
   15494:	f69ff06f          	j	153fc <__multadd+0xa4>

00015498 <__s2b>:
   15498:	fe010113          	addi	sp,sp,-32
   1549c:	00812c23          	sw	s0,24(sp)
   154a0:	00912a23          	sw	s1,20(sp)
   154a4:	00058413          	mv	s0,a1
   154a8:	00050493          	mv	s1,a0
   154ac:	00900593          	li	a1,9
   154b0:	00868513          	addi	a0,a3,8
   154b4:	01212823          	sw	s2,16(sp)
   154b8:	01312623          	sw	s3,12(sp)
   154bc:	01412423          	sw	s4,8(sp)
   154c0:	00112e23          	sw	ra,28(sp)
   154c4:	01512223          	sw	s5,4(sp)
   154c8:	01612023          	sw	s6,0(sp)
   154cc:	00068a13          	mv	s4,a3
   154d0:	00060993          	mv	s3,a2
   154d4:	00070913          	mv	s2,a4
   154d8:	6b1040ef          	jal	1a388 <__divsi3>
   154dc:	00100793          	li	a5,1
   154e0:	00000593          	li	a1,0
   154e4:	00a7d863          	ble	a0,a5,154f4 <__s2b+0x5c>
   154e8:	00179793          	slli	a5,a5,0x1
   154ec:	00158593          	addi	a1,a1,1
   154f0:	fea7cce3          	blt	a5,a0,154e8 <__s2b+0x50>
   154f4:	00048513          	mv	a0,s1
   154f8:	d99ff0ef          	jal	15290 <_Balloc>
   154fc:	00100793          	li	a5,1
